(lp1
Vget
p2
aVtravel
p3
aVlike
p4
ag2
aS'"surprising".'
p5
aVlive
p6
ag3
aVsleep
p7
aVprefer
p8
aVmeet
p9
aVhave
p10
aVdo
p11
aVknow
p12
aVwant
p13
aVlisten
p14
aVgo
p15
ag11
aVhate
p16
aVsee
p17
aVhand
p18
aVsay
p19
aVstart
p20
aVbook
p21
aVprove
p22
aVtake
p23
aVwrit
p24
aVwrite
p25
aVanswer
p26
aVthink
p27
aVmake
p28
aVinvite
p29
aVput
p30
aVfinish
p31
aVset
p32
ag10
aVdecide
p33
ag10
ag23
ag27
ag24
aVexpress
p34
ag8
aVlose
p35
aVwalk
p36
aVsuppose
p37
aVbother
p38
aVadvise
p39
aVlook
p40
aVhear
p41
aVplease
p42
aVsend
p43
ag4
aVswim
p44
aVinclude
p45
ag23
aVhelp
p46
ag12
ag41
ag40
ag23
ag15
ag10
aVspend
p47
ag11
ag4
aVcatch
p48
aVwait
p49
ag23
ag23
ag4
ag12
aVexplain
p50
ag10
aVstep
p51
ag11
aVmove
p52
aVavoid
p53
ag11
aVneed
p54
ag49
ag28
ag20
ag10
aVagree
p55
aS'seen.'
p56
ag10
aVinform
p57
ag4
aVrecommend
p58
ag10
aVreceive
p59
aVlie
p60
aVtell
p61
ag11
ag12
ag7
ag24
aS'smoke.'
p62
aVallow
p63
aVbring
p64
ag63
aVconcern
p65
aVenter
p66
ag17
aVinvent
p67
aVbless
p68
aVpromise
p69
ag11
ag46
ag24
ag20
ag15
ag31
ag31
ag20
aVclose
p70
ag10
aVenjoy
p71
ag70
ag19
aVwin
p72
ag10
ag59
ag24
aVkeep
p73
ag15
ag61
ag10
aVfollow
p74
ag10
aVdeserve
p75
ag11
ag4
aVask
p76
aVsit
p77
aVmean
p78
aVsurprise
p79
aVdelight
p80
ag59
ag40
ag13
aVwaste
p81
aVfind
p82
aVtry
p83
aVtalk
p84
ag46
aS'"shop'
p85
ag10
ag12
ag72
ag47
aS'paid'
p86
ag49
ag10
aVgive
p87
aVfilm
p88
ag19
aVname
p89
ag19
ag15
ag4
ag17
ag10
aVarchive
p90
ag28
aVlearn
p91
aVdisplay
p92
aVexcite
p93
ag17
ag23
ag69
ag11
aVwork
p94
aVchoose
p95
ag25
aVbecome
p96
ag15
ag10
ag40
ag41
aVcompare
p97
ag13
ag87
ag91
ag17
ag11
ag54
ag12
aS'pack.'
p98
aVbe
p99
ag73
aVcomplain
p100
ag24
aVsaw
p101
aS'forget.'
p102
aS'use'
p103
ag15
ag13
ag46
ag11
aVface
p104
ag4
ag28
aVfeel
p105
aVbegin
p106
ag46
ag42
ag20
aVstate
p107
aVmention
p108
aVlog
p109
ag10
aVcarry
p110
ag23
ag36
aVshop
p111
ag49
ag20
aVlove
p112
aVwish
p113
ag15
ag15
ag17
aVprepare
p114
aVstay
p115
ag20
ag105
ag40
ag41
aVbuy
p116
ag10
aS'spend.'
p117
ag10
aVwear
p118
ag13
ag12
ag63
ag15
aVchange
p119
ag74
ag25
aVstudy
p120
ag12
ag61
aVremind
p121
aVaccord
p122
aVvisit
p123
ag15
ag82
aVbrake
p124
ag49
ag25
ag49
aS'use'
p125
ag11
ag59
ag59
ag43
ag40
ag59
ag115
ag15
aVgather
p126
ag54
ag17
aVshout
p127
ag2
ag83
ag2
aVdelay
p128
ag28
ag20
aS'use'
p129
ag55
ag12
ag4
ag96
ag10
ag40
ag17
ag120
ag82
ag10
ag119
ag15
ag15
ag10
ag61
ag11
ag3
ag10
ag36
ag123
ag115
ag54
ag12
ag11
ag10
ag27
ag20
ag105
aVjump
p130
ag11
ag94
ag23
ag15
aVfishes
p131
aVconvince
p132
ag23
aVthank
p133
aVplay
p134
aVimagine
p135
aVwatch
p136
ag78
ag13
ag23
ag134
aVsing
p137
ag10
ag79
ag11
ag87
ag34
ag24
ag133
ag10
ag20
aVnotice
p138
ag20
ag3
ag11
aVcontinue
p139
ag27
aVdeal
p140
ag29
ag29
ag73
ag99
ag96
ag20
ag19
ag115
ag10
ag20
ag122
ag10
ag19
aS'realise'
p141
ag136
ag4
ag29
ag10
aVsituate
p142
aVrecover
p143
aVseem
p144
ag10
aVadmit
p145
ag76
ag54
ag99
aVlet
p146
ag119
ag31
ag9
aVwonder
p147
ag7
ag3
aVused
p148
ag95
ag4
ag10
ag23
aVconcentrate
p149
ag83
aVbuild
p150
ag23
ag39
ag83
ag46
ag15
ag4
ag13
ag11
ag83
ag82
ag73
ag133
ag113
ag61
ag15
aVbelieve
p151
ag19
ag123
ag31
ag20
ag15
ag116
aVshut
p152
aVconfirm
p153
ag133
ag13
ag11
ag46
aVcommunicate
p154
ag47
aVsave
p155
ag123
ag58
aVhold
p156
aVlink
p157
ag26
ag83
ag2
ag82
aVorganize
p158
ag10
ag88
ag146
ag24
ag113
ag15
aVsail
p159
ag10
ag83
ag40
ag133
ag10
ag63
ag17
ag10
ag64
ag40
ag41
ag19
ag20
ag32
ag9
ag71
aVpractise
p160
aVarrive
p161
ag128
aVdiscuss
p162
ag158
aVhope
p163
ag27
aVoffer
p164
ag15
ag4
ag134
aVrely
p165
ag105
ag28
ag11
ag15
ag54
aVnote
p166
ag10
ag59
ag24
ag61
ag28
ag72
ag87
aVpick
p167
aVwash
p168
aVrush
p169
ag26
ag119
aVsuggest
p170
ag54
ag11
ag82
aVpart
p171
aVspeak
p172
ag30
ag123
ag82
ag83
ag26
ag10
ag23
ag27
ag20
ag11
ag13
ag134
ag10
ag12
ag11
ag10
aVsucceed
p173
ag61
ag49
aS"girl'"
p174
ag19
ag82
ag77
aVconsider
p175
ag15
ag17
ag74
ag11
ag10
aVsmoke
p176
ag15
ag25
aVfall
p177
aVrisk
p178
ag9
aVdance
p179
ag151
ag10
ag123
ag133
aVdepend
p180
ag27
ag2
ag99
aVregret
p181
aVforget
p182
aVaffect
p183
aVattract
p184
ag12
ag27
aS"he,'"
p185
ag87
aVregard
p186
ag4
ag10
ag27
ag74
ag10
ag134
ag15
aVclimb
p187
aVread
p188
aS'improve.'
p189
ag17
ag63
ag15
ag10
ag27
ag95
aVsuit
p190
ag144
ag11
ag76
ag4
aVsting
p191
ag135
ag23
aVimprove
p192
ag27
ag11
ag4
ag2
ag26
ag4
ag41
ag163
ag15
ag187
ag101
ag10
ag81
ag15
ag13
ag12
ag15
ag10
ag12
ag13
ag61
ag27
ag10
ag10
ag15
aVdiscover
p193
aVshow
p194
ag15
ag12
ag10
aVapply
p195
aVdress
p196
ag42
ag10
ag70
ag15
aVcome
p197
ag10
ag12
aVcrash
p198
ag11
ag11
ag71
ag19
aVsurf
p199
ag47
ag3
ag15
ag172
ag164
ag10
ag82
ag75
ag10
ag91
ag112
ag41
ag13
ag11
ag23
ag41
ag15
ag19
ag7
ag13
ag11
ag148
ag99
aVqueue
p200
aVkiss
p201
ag19
ag19
ag84
ag100
ag24
ag25
ag33
ag59
ag61
ag94
ag10
ag3
ag116
aVafford
p202
ag19
aVconnect
p203
ag27
ag4
ag61
ag10
ag73
ag99
aVhappen
p204
ag10
ag17
ag15
ag15
aVdisturb
p205
ag10
ag6
ag95
ag44
ag10
ag15
ag183
ag11
ag114
ag23
ag76
aVgrow
p206
ag6
ag10
aVcause
p207
ag81
ag15
ag10
ag61
ag27
aVcamp
p208
ag59
ag24
ag87
ag113
ag49
ag10
ag47
ag28
ag17
ag170
ag4
ag61
ag23
ag15
ag10
ag72
ag133
ag10
ag71
ag47
ag15
ag46
ag13
ag41
ag40
ag54
ag87
ag10
ag163
ag15
ag28
ag27
ag10
aVschedule
p209
ag20
ag24
ag100
ag61
ag10
aS'provided.'
p210
ag82
ag11
ag27
ag2
ag99
ag19
aVkill
p211
ag19
ag15
aVplan
p212
ag61
ag72
ag94
ag10
ag3
ag73
ag99
ag10
ag12
ag146
ag163
ag10
ag11
aS'take.'
p213
ag4
ag99
ag40
aS'"enjoy'
p214
ag19
ag4
ag91
ag58
ag40
ag20
aVwill
p215
ag99
aVbe accommodate
p216
ag10
ag83
ag170
ag11
aVappreciate
p217
ag99
aVpass
p218
ag96
ag33
ag40
ag72
ag10
ag19
ag59
ag186
ag8
ag115
ag144
aVeat
p219
ag197
ag13
ag12
aVattend
p220
ag154
ag197
ag82
aVprotect
p221
ag172
ag20
ag123
aVdisappear
p222
ag13
ag19
ag99
ag23
ag7
aVexperience
p223
ag10
aVsoak
p224
ag10
ag15
aVfail
p225
aVremain
p226
ag111
ag204
ag182
aS'secrets.'
p227
ag10
aVsort
p228
aVmanage
p229
ag134
ag134
ag120
ag27
ag59
ag24
ag87
ag25
ag19
ag106
ag19
ag204
aVunderstand
p230
ag17
ag13
ag11
aVobtain
p231
aVupset
p232
aVdisappoint
p233
ag13
ag76
ag95
ag4
aS'do.'
p234
ag41
ag40
ag172
ag188
ag28
ag10
ag96
ag10
ag6
ag74
ag40
ag59
ag187
aVcontrol
p235
aS'say,'
p236
ag10
ag233
ag119
ag46
ag12
ag137
ag12
ag204
aVbully
p237
aVpresent
p238
aVplay for
p239
ag172
ag78
ag61
ag10
ag188
ag15
ag73
ag99
ag2
aS'please,'
p240
ag2
aS'recognise'
p241
ag36
ag95
ag43
ag10
ag40
ag41
ag61
ag12
ag10
ag40
ag49
ag10
ag175
ag134
ag23
ag73
ag99
ag23
aVconsist
p242
aVcheck
p243
ag8
ag76
ag19
aVact
p244
ag73
ag25
ag42
ag41
ag3
ag94
ag4
ag31
ag15
aVrealize
p245
ag11
ag82
aVoppose
p246
ag151
ag170
ag4
ag119
ag10
aVphone
p247
ag2
ag23
aS'think,'
p248
ag28
ag47
ag123
ag13
ag118
ag10
ag118
ag87
ag19
ag84
aVshock
p249
ag101
ag28
ag116
ag4
ag10
ag7
ag109
ag76
ag8
aVreply
p250
ag24
ag10
ag11
aVbring out
p251
ag10
aS'use'
p252
ag99
ag12
ag11
ag10
ag11
ag4
ag134
ag28
ag6
aVenhance
p253
ag122
ag10
aS'dead.'
p254
ag61
ag94
ag46
ag59
ag41
ag73
ag19
aS'possible.'
p255
ag94
ag197
ag15
ag4
ag39
ag82
ag28
ag10
ag247
ag61
ag11
ag4
ag3
ag73
ag61
ag12
ag2
aVteach
p256
ag33
ag95
ag187
ag23
ag71
ag11
ag8
ag3
ag188
ag138
ag244
ag26
ag42
ag59
ag10
ag19
ag13
ag19
ag10
ag27
ag11
ag97
ag138
ag10
ag119
ag27
ag13
ag10
ag197
ag2
ag17
ag15
ag10
aVarrange
p257
ag74
ag197
ag187
ag44
ag71
ag134
ag59
ag41
ag40
ag15
ag49
ag12
ag4
ag25
ag119
aVrefer
p258
ag8
ag133
ag11
ag27
ag7
ag11
ag12
ag10
ag105
aVentitle
p259
ag52
ag148
ag6
ag20
ag123
ag24
ag100
ag23
ag46
ag164
ag186
ag39
aS'bring.'
p260
ag114
ag23
ag133
ag26
ag130
ag211
ag146
aVopen
p261
ag10
aVcan
p262
aVmust
p263
aVwould
p264
ag20
ag11
ag74
ag13
ag91
ag17
ag41
ag71
ag10
ag61
ag118
aVmiss
p265
ag15
ag10
aVpull
p266
aVpause
p267
ag19
ag10
ag13
ag10
ag4
ag12
ag23
ag61
ag105
aVsolve
p268
ag12
ag42
aVoblige
p269
ag41
ag28
ag138
ag27
ag20
ag31
ag10
ag10
ag108
ag10
ag264
ag264
ag35
ag116
ag10
ag17
aVswap
p270
ag10
ag23
ag101
ag19
ag19
ag10
ag15
aVpay
p271
ag23
ag212
ag10
ag4
ag115
ag11
ag19
ag71
ag10
aVfill
p272
ag54
ag10
ag271
ag71
ag45
ag65
ag151
ag2
ag87
ag2
ag15
ag133
ag12
ag161
ag19
ag10
ag156
ag87
ag24
ag31
ag20
ag10
ag72
ag66
aVamaze
p273
ag10
ag64
ag23
aVfed
p274
ag116
ag33
ag138
ag20
ag17
ag13
ag47
ag10
ag2
ag11
ag70
ag61
ag134
ag148
ag4
ag3
ag2
ag99
ag73
ag35
ag15
ag12
ag11
ag10
ag13
ag44
ag82
ag31
ag28
ag4
ag61
ag87
ag15
ag76
ag33
aVwake
p275
ag15
ag15
ag27
ag10
ag10
ag10
ag10
aS'changed.'
p276
aVworry
p277
ag161
ag15
ag82
ag23
ag2
ag13
ag2
ag123
ag17
ag13
ag116
ag10
ag193
ag10
ag223
ag87
aVrequest
p278
ag112
aVcall
p279
ag61
ag8
ag115
aVprice
p280
ag10
ag10
ag119
ag40
ag41
ag28
ag23
ag59
ag10
ag10
ag41
ag72
ag10
ag17
aS'queu'
p281
ag10
aVsteal
p282
aVlead
p283
aS'realise'
p284
ag61
ag11
ag61
ag212
ag128
ag119
ag27
aS'travel.'
p285
ag76
ag100
ag24
ag194
ag47
ag10
ag183
ag144
ag10
aVrehearse
p286
ag133
ag233
ag17
aVperform
p287
ag10
ag61
ag10
ag10
ag25
ag156
ag163
ag46
ag136
ag17
ag10
ag10
ag78
ag111
ag3
ag59
ag72
aS'curiosity.'
p288
ag151
ag10
ag40
ag41
aVcontain
p289
ag10
ag70
ag87
ag163
ag133
aS'use'
p290
ag15
ag61
ag12
ag160
ag151
aVwork on
p291
ag31
aVcontact
p292
ag155
ag57
ag15
ag115
ag4
ag149
ag138
ag4
ag76
ag41
aS'offered.'
p293
ag4
aVbase
p294
ag10
ag170
ag12
ag4
ag10
ag95
ag36
ag262
ag11
ag119
ag10
ag10
ag24
ag133
ag40
ag41
ag106
ag94
ag41
ag40
ag10
aVworked a
p295
ag12
ag99
ag25
ag10
ag70
ag161
ag13
ag219
ag163
aVforgive
p296
ag2
ag133
ag10
ag33
ag10
ag3
ag147
ag120
ag19
ag10
ag14
ag163
ag29
ag14
ag179
aS'"salsa"'
p297
ag40
aVfloat
p298
ag10
aS'caught.'
p299
ag230
aVfight
p300
ag8
ag11
ag33
ag15
ag13
aVschool
p301
ag197
aVprovide
p302
ag10
ag112
ag15
ag13
ag11
aS'apologise'
p303
ag148
ag15
ag74
ag4
ag40
ag46
ag163
ag11
ag10
ag3
ag4
ag3
ag10
ag46
aVre-present
p304
ag58
ag11
ag19
ag8
ag10
ag95
ag13
aVearn
p305
ag9
ag10
ag82
aVrefund
p306
ag76
ag134
ag47
ag20
ag7
ag10
ag11
ag10
ag11
ag12
ag96
ag226
aVastonish
p307
ag40
ag119
ag148
ag84
ag10
ag119
ag247
ag72
ag46
ag46
ag13
ag25
ag10
ag28
ag11
ag148
aVoperate
p308
ag8
ag109
ag27
ag23
ag48
ag10
aVsum
p309
ag15
ag87
ag170
ag4
ag11
ag10
ag76
aVjoin
p310
ag15
ag94
ag12
ag15
ag162
ag27
ag25
ag10
ag161
ag43
ag2
ag26
ag182
ag87
aVowe
p311
ag61
ag107
ag53
aVgo to
p312
aVorganise
p313
aVrun
p314
ag55
ag61
ag118
ag50
ag83
ag119
ag10
ag71
ag15
ag27
ag31
ag136
ag15
ag10
ag12
ag10
ag115
ag76
ag15
ag23
aVhad been
p315
ag49
aVend
p316
aVcreate
p317
ag6
ag3
ag54
ag94
ag120
ag10
ag188
ag13
ag12
ag10
ag10
ag87
ag24
ag59
ag25
ag11
ag20
aS'"discount'
p318
ag99
ag188
ag15
ag61
ag24
aVdescribe
p319
aVlaugh
p320
ag4
ag83
ag15
ag116
ag163
ag2
ag108
ag2
ag11
ag116
ag10
ag73
ag13
ag83
ag148
ag187
ag99
ag99
ag46
ag150
ag138
aVhesitate
p321
ag11
ag292
ag186
ag40
ag42
ag54
ag40
ag41
ag28
ag139
aVexpect
p322
ag2
ag13
ag10
ag116
ag4
ag197
ag33
ag20
ag13
ag23
ag194
ag23
ag41
ag192
ag15
ag36
ag12
ag17
ag146
ag76
ag10
ag159
ag10
ag4
ag83
ag87
ag10
ag159
ag61
ag21
ag10
ag10
ag115
ag46
ag59
ag10
ag4
ag61
ag40
ag2
aVmodify
p323
aVreplace
p324
aVassimilate
p325
ag10
aS'take.'
p326
ag4
ag39
ag63
ag14
ag59
ag10
ag15
ag40
ag34
ag24
ag136
ag233
ag161
ag9
ag148
ag61
ag10
ag72
ag188
ag11
ag12
ag30
ag44
ag11
aVargue
p327
ag61
ag74
ag10
aVdie
p328
ag10
aVadd
p329
ag192
ag2
ag10
ag76
ag10
ag148
ag55
ag148
ag41
ag40
ag3
ag30
ag82
ag47
ag13
ag10
ag279
ag46
ag10
ag13
ag71
ag257
aVrecollect
p330
ag105
ag8
ag197
ag27
ag10
ag82
ag52
ag134
aVbreak
p331
ag146
aVclean
p332
aVfix
p333
ag20
ag158
ag19
ag4
ag47
ag10
aVreact
p334
ag96
ag41
ag40
ag28
aVdevelop
p335
ag96
ag23
ag66
ag49
ag77
ag170
ag27
ag114
ag11
ag40
ag46
aVstop
p336
ag19
ag70
ag15
ag15
ag197
ag23
ag163
ag15
ag271
ag10
ag112
ag137
ag95
ag137
ag84
ag13
ag59
ag10
ag84
ag6
aS'dialle'
p337
ag70
ag10
ag82
ag10
ag142
ag23
ag47
ag87
ag4
ag94
ag10
ag95
ag95
ag145
ag10
ag59
ag24
ag27
aVturn
p338
ag10
aVlist
p339
ag10
aS'help,'
p340
ag13
aS'do.'
p341
ag13
ag115
ag2
ag96
ag46
ag76
ag61
ag19
ag119
ag95
ag4
ag137
ag137
ag23
ag27
ag116
ag116
ag11
ag163
ag119
ag119
ag10
ag11
ag20
ag15
ag17
ag119
ag10
ag96
ag10
ag13
ag10
ag10
ag10
ag113
ag116
ag10
ag27
ag13
ag113
ag36
ag82
aS'talk,'
p342
aS'want.'
p343
ag163
aS'useful.'
p344
ag4
ag95
ag122
ag15
ag134
ag82
ag30
ag133
aS'organise'
p345
ag82
aVsunbathe
p346
ag134
ag37
ag105
ag11
ag10
ag67
ag46
ag96
ag82
ag10
ag28
ag217
ag87
ag192
ag25
ag2
ag83
ag82
ag148
ag257
ag15
ag10
ag19
ag87
ag11
ag322
ag71
aVrelax
p347
ag46
ag54
ag230
ag10
ag148
aVstare
p348
aVsuffer
p349
ag10
ag161
ag28
ag10
ag19
ag19
ag54
ag42
ag10
ag11
ag27
ag81
ag10
ag170
ag36
ag17
aS'realise'
p350
ag28
aVachieve
p351
ag14
ag54
ag9
ag23
ag105
ag233
ag15
ag17
ag11
ag229
aS'"study"'
p352
ag17
ag40
ag17
ag11
ag15
ag61
ag10
ag15
ag27
ag20
aVmatter
p353
ag23
ag10
ag123
ag15
ag250
ag33
ag83
ag47
ag27
ag15
ag245
ag10
ag47
ag24
aS'organise'
p354
ag205
ag10
ag87
ag76
ag269
ag118
ag94
ag15
ag15
ag20
ag4
ag3
ag61
ag148
ag133
ag43
ag133
ag47
ag10
ag19
ag27
ag82
ag15
ag10
ag54
ag2
aVstamp
p355
ag40
ag41
ag211
aVhelp bee
p356
ag41
aVfilled in
p357
aVassure
p358
ag10
ag40
ag164
ag123
ag101
ag87
ag24
ag34
ag47
ag115
ag43
ag10
ag10
ag136
aVsatisfy
p359
ag4
ag116
ag28
ag37
aS'use'
p360
ag10
ag43
ag95
ag10
ag144
ag25
ag101
ag10
ag15
ag159
ag15
ag44
aVdream
p361
ag10
ag348
ag95
ag27
ag28
ag10
ag97
ag116
ag10
ag4
ag99
ag87
ag24
ag15
ag186
ag87
ag2
ag133
ag306
ag11
aVurge
p362
ag193
ag58
ag9
ag15
ag10
ag114
ag165
ag11
ag2
ag10
ag197
ag41
ag123
ag10
ag2
ag310
ag4
ag61
ag4
aVbury
p363
ag116
ag116
ag235
ag10
ag69
ag48
ag10
aVimpress
p364
ag96
ag82
ag27
ag76
aVmarry
p365
ag8
ag11
ag15
ag10
ag84
aVgossip
p366
ag11
ag27
ag12
ag188
ag262
ag12
aVincrease
p367
ag64
ag367
ag10
ag19
ag10
ag76
ag25
ag12
aVmake up
p368
ag12
ag19
ag11
aVpollute
p369
ag10
ag140
ag309
ag4
ag170
ag88
ag10
ag10
ag15
ag70
ag197
ag11
ag225
ag59
ag133
ag8
ag262
aVgo shop
p370
ag11
ag53
ag83
aVtire
p371
ag233
ag54
ag46
aS'organise'
p372
ag24
ag72
ag10
ag335
ag87
ag10
ag76
ag10
ag13
ag61
ag12
ag27
ag76
ag12
aVsound
p373
ag338
ag12
aVstand
p374
ag19
ag76
ag10
ag10
ag17
ag134
aVcontest
p375
aVreach
p376
ag27
ag10
ag12
aVappear
p377
aS"it'"
p378
ag11
ag120
ag15
ag54
ag10
ag163
ag3
ag6
ag123
ag17
ag15
aVserve
p379
ag310
ag134
aVleft
p380
ag2
ag243
ag20
ag84
ag119
ag163
ag17
ag40
ag76
ag146
ag12
ag163
ag175
ag43
ag42
ag83
ag11
ag138
ag46
ag10
ag99
aS'paid'
p381
ag40
ag73
aVcare
p382
ag2
aVcry
p383
ag20
ag58
aS'use'
p384
ag27
aS'use'
p385
ag63
ag87
ag156
ag116
ag10
ag146
aS'you,'
p386
ag10
ag40
ag64
ag119
ag188
ag11
ag10
ag41
ag218
ag244
ag106
ag4
ag57
ag15
ag71
ag17
ag24
ag15
ag23
ag54
ag17
ag188
ag10
ag33
ag28
ag2
ag10
ag7
ag20
ag316
ag15
ag37
ag20
ag35
ag94
ag183
ag28
ag10
ag245
ag84
ag324
ag12
ag43
aS'paid'
p387
ag116
ag10
ag134
ag27
ag112
ag10
ag12
ag11
ag12
ag244
ag10
ag11
ag10
ag11
aS'rang'
p388
ag76
ag10
ag12
ag46
ag133
ag4
aS'organise'
p389
ag47
ag148
ag10
ag101
ag135
ag41
ag338
ag133
aS'use'
p390
ag12
ag192
ag13
ag99
ag73
ag146
ag118
ag118
ag40
ag10
ag28
ag99
ag219
ag13
ag61
aVreturn
p391
ag76
ag4
ag10
ag11
ag19
ag95
ag116
ag64
ag27
ag10
ag27
ag116
ag10
aVinvest
p392
ag2
ag111
ag10
ag45
ag27
aVtidy
p393
ag11
ag4
ag23
ag10
ag3
ag4
ag95
ag93
ag20
aS'organise'
p394
ag183
ag163
ag47
ag59
ag146
aS'ask.'
p395
ag4
ag15
ag118
ag40
ag30
ag10
ag347
ag76
ag4
ag10
ag10
ag65
ag28
ag182
ag12
ag229
ag2
ag114
ag310
ag4
ag17
ag88
ag87
ag120
ag192
aVshould
p396
ag396
ag23
ag58
ag44
ag63
ag233
ag70
ag10
ag11
ag116
ag46
ag15
ag12
ag28
ag172
ag28
ag11
ag82
ag99
aS'higher.'
p397
ag19
ag27
ag15
ag52
ag99
ag114
ag47
ag27
ag192
ag61
ag10
ag197
ag24
ag29
ag158
ag13
ag6
ag10
ag99
ag123
ag10
ag377
ag13
ag10
ag12
ag146
ag217
ag99
ag72
ag83
ag55
aVpredict
p398
ag146
ag41
ag40
ag76
ag10
ag250
ag4
ag3
ag10
ag127
ag338
ag243
ag72
ag10
ag11
ag183
ag47
ag83
ag73
ag54
ag11
ag15
ag94
ag100
ag24
ag10
ag72
ag71
ag268
aVfel
p399
ag238
ag61
ag87
aVtrust
p400
ag20
ag194
ag94
ag134
ag10
ag47
ag10
ag63
ag7
ag28
ag70
ag247
ag15
ag17
ag19
ag13
ag2
ag46
ag10
ag136
ag49
ag25
ag11
ag4
ag76
ag43
ag328
ag12
ag306
ag13
ag306
ag50
ag204
aVwiden
p401
ag12
ag204
ag19
ag27
ag172
ag19
ag105
ag17
ag41
ag40
aVprevent
p402
ag71
ag402
ag66
ag4
ag15
ag11
ag49
ag309
ag10
ag8
ag115
ag2
ag94
ag46
ag150
aVdismantle
p403
ag10
ag243
ag19
aVpretend
p404
aS'sang'
p405
ag15
ag101
ag17
ag13
ag13
ag10
ag12
ag83
ag95
aVform
p406
ag17
ag104
ag10
ag20
ag29
ag11
ag123
aS'came,'
p407
ag120
ag282
ag135
ag21
ag243
ag10
ag82
aVrain
p408
ag2
ag7
ag82
ag57
ag258
ag72
ag10
ag17
ag24
ag100
aS'marvellous.'
p409
ag87
ag76
ag13
ag72
ag10
ag28
aS'use'
p410
ag373
ag27
ag10
ag8
ag25
ag42
ag146
ag10
ag15
aVaccept
p411
ag27
ag160
ag23
ag76
ag4
ag45
ag58
aVplace
p412
ag167
ag10
ag10
ag11
ag13
ag11
ag94
ag33
ag91
aVdedicate
p413
ag108
ag15
ag115
ag10
ag61
ag15
ag17
ag15
ag145
ag10
ag115
ag100
ag40
ag9
ag10
aVinvolve
p414
ag300
ag24
ag59
ag123
ag11
ag10
ag197
ag19
ag72
ag10
aVsell
p415
ag10
aS'expected.'
p416
ag10
ag15
ag10
ag374
ag162
ag10
ag61
ag10
ag118
ag134
ag271
ag10
ag11
ag4
ag95
ag27
aVtrain
p417
ag186
ag134
ag27
ag78
ag61
ag10
aVbefriend
p418
ag41
ag40
ag28
aVcut down
p419
ag28
ag15
ag6
ag118
ag83
ag163
ag230
ag212
ag15
ag15
ag302
ag27
ag10
ag46
aVintroduce
p420
ag163
ag2
ag2
ag44
aS'change.'
p421
ag4
ag46
ag76
ag2
ag2
ag27
ag324
ag10
ag20
ag46
ag84
ag4
ag10
ag70
ag134
ag76
ag11
ag27
aS'take,'
p422
ag12
ag146
ag64
ag10
ag164
ag40
ag41
ag10
ag21
ag82
ag10
ag58
ag70
ag61
ag10
ag119
ag134
ag17
ag113
ag23
ag10
ag23
ag47
ag13
ag17
ag10
ag316
ag164
ag164
ag310
ag115
ag148
ag76
ag15
ag115
ag4
ag10
ag15
ag17
ag220
ag54
ag172
ag17
ag19
ag12
ag123
ag10
ag15
ag29
ag19
ag40
ag79
aVdecorate
p423
ag61
ag147
ag119
ag41
ag40
ag45
ag15
ag4
ag27
ag15
ag192
aVsurround
p424
ag257
ag99
ag144
ag11
aVremember
p425
ag13
aVinsist
p426
ag10
ag92
aVtook place
p427
ag4
ag27
ag45
ag144
ag10
ag30
ag161
ag61
ag15
ag83
ag59
ag40
ag250
ag11
ag11
ag15
ag82
ag15
ag23
ag23
aS'knew,'
p428
ag61
ag20
ag10
ag172
ag9
ag46
aVrepair
p429
ag11
ag10
ag76
ag61
ag40
ag49
aVtransform
p430
ag13
ag2
aS'shopping,'
p431
ag309
ag2
ag10
ag61
ag87
ag336
ag11
ag11
ag15
ag69
ag3
ag20
ag87
ag17
ag15
aS'be!'
p432
ag23
ag4
ag95
ag10
ag10
aS'see,'
p433
ag10
ag10
ag19
ag15
ag27
ag99
ag15
ag10
ag27
ag71
ag197
ag28
ag69
ag15
ag199
ag134
ag47
ag95
ag4
ag134
ag137
ag207
ag186
ag95
ag15
ag43
ag23
ag15
ag13
ag233
ag61
ag4
ag43
ag42
ag61
ag10
ag24
ag100
ag10
ag12
ag147
ag263
ag76
ag11
aS'advertise'
p434
ag15
ag3
aS'conclude,'
p435
ag10
ag4
ag12
ag30
ag15
ag61
ag11
ag10
ag154
ag12
ag71
ag118
ag27
ag221
aVcover
p436
ag4
ag11
ag46
ag15
ag151
ag61
ag40
ag33
ag15
ag61
ag302
ag59
ag40
ag162
ag28
ag12
ag87
ag10
ag111
ag11
ag87
ag27
ag61
ag411
ag134
ag10
ag233
ag20
ag20
ag209
ag28
ag23
ag4
ag12
ag10
ag23
ag101
ag135
ag70
ag87
ag19
ag50
ag99
ag59
ag59
ag164
ag15
ag10
ag3
ag11
ag61
ag24
ag115
ag188
ag123
ag65
ag4
ag19
ag8
ag19
ag244
ag2
ag95
aVattach
p437
ag138
ag20
ag64
ag10
ag37
ag163
ag10
ag151
ag302
ag23
ag31
ag33
ag144
ag27
ag87
aS"there'"
p438
ag2
ag42
ag23
ag25
ag95
ag305
ag82
ag76
ag151
ag79
ag15
ag87
ag2
ag20
ag61
ag27
ag11
ag27
ag4
ag76
ag292
ag163
ag10
ag9
ag10
ag61
ag15
ag28
ag10
aVbeen finish
p439
ag23
ag108
ag10
ag10
ag4
ag20
ag37
ag20
ag40
ag10
ag220
ag17
ag13
ag11
ag27
ag119
aS'sang'
p440
ag105
ag42
ag411
ag10
ag46
ag95
ag87
ag15
ag15
ag391
ag10
aS'born.'
p441
ag12
ag11
ag12
ag87
ag10
ag17
ag10
ag10
aS'see,'
p442
ag197
ag221
ag10
ag82
ag2
ag27
ag309
ag66
aVabandon
p443
ag27
ag11
ag271
ag161
ag204
ag12
aS'organise'
p444
ag161
ag20
ag271
ag10
ag317
ag61
ag10
ag8
ag10
ag87
ag186
ag324
ag52
ag27
ag277
ag10
ag150
ag28
aS'do.'
p445
ag13
ag11
ag163
ag61
ag2
aS'paid'
p446
ag87
ag306
ag230
ag11
ag10
aVannounce
p447
ag63
ag84
aS'are.'
p448
aS'held.'
p449
ag9
ag27
ag10
aVguess
p450
aS'made.'
p451
ag115
ag10
ag99
ag73
ag3
ag42
ag164
ag84
ag77
ag233
ag101
ag11
ag15
ag17
ag322
ag71
ag11
ag37
ag11
ag20
ag257
ag197
ag91
ag10
ag72
ag59
ag82
ag12
ag202
ag10
ag119
ag95
ag84
ag49
ag130
ag10
ag15
ag163
ag133
ag24
ag133
ag10
aS'organise'
p452
ag84
aS'paid'
p453
ag10
ag9
ag271
ag322
ag15
ag101
ag305
ag280
ag10
ag40
ag118
ag61
ag163
ag119
ag10
ag27
ag12
ag10
ag119
ag335
ag44
ag204
ag17
ag11
aS'queu'
p454
ag4
ag420
ag11
ag402
ag10
ag118
ag95
ag113
ag10
aS'there.'
p455
ag204
ag19
ag4
ag359
ag302
ag10
ag23
ag4
ag76
ag41
ag72
ag100
ag24
ag101
ag112
ag12
ag13
ag134
aVstar
p456
ag122
ag11
ag287
ag12
aVbore
p457
ag2
ag105
ag115
ag15
ag101
ag33
ag10
ag15
aVreduce
p458
ag194
aS'recognise'
p459
ag361
ag41
ag40
ag42
ag76
ag271
ag135
ag19
ag12
ag97
ag27
ag99
ag182
aVdraw
p460
ag54
ag13
ag146
aVrealise
p461
ag4
ag118
ag10
ag377
ag4
ag3
aS'paid'
p462
ag10
ag118
aVrefuse
p463
ag118
ag8
ag282
ag83
ag134
ag188
ag4
ag19
ag73
ag99
ag116
ag316
ag46
ag76
ag4
ag424
ag6
ag64
ag10
ag148
aVsettle
p464
ag28
ag11
ag163
ag151
ag61
ag26
ag163
ag54
ag23
ag24
ag87
ag138
ag204
ag10
ag411
ag10
ag2
ag365
ag336
ag261
ag10
ag37
ag138
ag134
ag212
aVindicate
p465
ag47
ag46
ag11
ag10
ag46
ag7
ag7
ag8
ag112
ag423
ag161
ag195
ag17
ag12
ag158
ag172
aS'filmed.'
p466
ag88
ag14
aS'realise'
p467
ag28
ag6
ag135
ag139
aVencourage
p468
ag105
ag49
ag10
ag168
ag17
ag15
ag33
ag10
ag73
ag155
ag99
aVwas about to
p469
ag71
ag4
ag262
ag84
ag162
ag101
ag15
ag115
ag52
ag11
ag54
aVadmire
p470
ag40
ag41
ag25
ag59
ag115
ag164
ag4
aS'ask.'
p471
ag4
ag83
ag28
ag11
ag28
ag20
ag10
ag23
ag6
ag59
ag94
ag10
ag197
ag64
aS'holidays.'
p472
ag10
ag94
ag3
aVcongratulate
p473
ag59
ag72
ag10
ag54
ag64
ag4
ag76
aVcook
p474
ag10
ag41
ag28
ag41
ag19
ag319
ag235
ag115
ag8
ag7
ag10
ag49
ag115
ag2
ag12
ag16
aS"it'"
p475
ag32
ag374
ag49
ag70
ag10
ag15
ag70
ag40
ag17
ag149
ag46
ag206
ag168
ag82
ag13
aS'organise'
p476
ag9
ag73
ag99
ag27
ag21
ag10
ag207
ag41
ag40
ag11
ag197
ag119
ag40
ag41
ag59
ag40
ag10
ag11
ag321
ag76
aVregister
p477
ag20
ag4
ag3
ag168
ag250
ag15
ag230
ag163
ag347
ag367
ag94
aVstress
p478
ag24
aS'forget.'
p479
ag4
ag27
ag23
aS'use'
p480
ag15
aS'cash?'
p481
ag10
ag24
ag250
ag76
ag87
ag425
ag10
ag83
ag82
ag13
ag94
ag305
ag46
ag9
ag9
ag3
ag151
ag76
ag116
ag82
ag25
ag27
ag10
aS'analyse'
p482
aVcollect
p483
ag148
ag82
ag69
ag72
ag24
ag11
ag20
ag10
ag15
ag82
ag2
ag142
ag10
ag17
ag10
ag10
ag10
ag11
ag3
ag4
ag120
ag15
ag302
ag19
ag19
ag10
ag114
ag20
ag187
aVleave
p484
ag147
ag73
aS"it'"
p485
aVhandle
p486
aS'use'
p487
ag27
ag259
ag71
ag233
ag15
ag118
ag48
ag10
ag119
ag220
ag2
ag3
ag27
ag11
ag31
ag3
ag3
ag15
ag219
ag383
ag7
ag10
ag47
ag4
ag76
aS'need,'
p488
ag54
ag162
ag163
ag13
ag46
ag28
ag10
ag46
ag11
aVorder
p489
aVchallenge
p490
ag261
ag54
aVdiscount
p491
aVembarrass
p492
ag10
ag13
ag12
ag23
ag47
ag309
ag28
ag122
ag72
ag59
ag10
ag116
ag27
ag83
ag10
ag31
ag28
ag4
ag195
ag10
ag11
ag10
ag176
ag194
ag347
ag182
aVrest
p493
aVrefind
p494
ag138
aVhad for
p495
ag133
ag3
ag15
ag2
ag74
ag338
ag59
ag82
ag136
ag287
ag10
ag61
ag9
ag96
ag206
ag87
ag108
ag377
ag115
ag20
ag61
ag60
ag10
ag23
ag114
ag10
ag23
ag277
ag50
ag10
ag331
ag20
ag61
ag70
ag10
ag40
ag8
ag83
aVamend
p496
ag163
ag217
ag146
ag335
ag11
ag279
ag314
ag11
ag10
ag99
ag10
ag27
ag74
ag10
ag54
ag19
ag10
ag11
ag39
ag12
aVpuzzle
p497
ag233
ag33
ag28
ag101
ag186
ag50
ag24
ag72
ag10
ag44
ag11
ag4
ag49
ag10
ag10
ag119
ag10
aVseparate
p498
ag10
ag11
ag40
aS"it'"
p499
ag168
ag10
ag82
ag187
ag33
ag10
ag27
ag10
ag283
ag136
ag374
ag41
ag99
ag119
ag10
ag87
ag4
ag184
ag10
ag12
ag27
ag187
ag2
ag87
ag15
ag44
ag10
ag84
ag10
ag197
ag10
ag6
ag94
ag54
ag137
ag27
ag271
ag4
ag179
ag154
ag119
ag10
ag233
ag10
ag10
ag135
ag6
aS'ask,'
p500
ag10
ag42
ag40
ag115
ag10
ag115
ag24
ag101
ag258
ag138
ag264
ag182
ag11
ag10
ag84
ag11
ag40
ag257
ag156
ag134
aS'use'
p501
ag46
ag13
ag12
ag12
ag16
ag11
aS'take.'
p502
aVshall
p503
ag40
ag120
ag123
ag73
ag99
ag25
ag396
ag33
ag47
ag28
ag2
ag493
ag10
ag15
ag70
ag61
ag31
ag9
aVrecord
p504
ag197
ag10
ag10
ag58
ag23
ag15
ag17
ag61
ag144
ag55
ag4
ag12
ag230
ag10
ag11
ag61
ag10
ag4
ag443
ag47
ag9
ag55
ag10
ag37
ag14
ag116
ag11
ag27
ag26
ag118
aVshare
p505
ag13
ag61
ag116
ag87
ag4
ag133
ag10
ag302
aS'available.'
p506
ag87
ag76
ag40
ag23
ag27
ag119
ag17
ag40
ag197
ag15
ag359
ag46
ag83
aVpersuade
p507
ag23
ag96
ag245
ag67
ag28
ag59
ag101
ag47
ag11
ag133
ag505
ag76
ag61
ag17
ag40
ag76
ag99
ag87
ag151
aVmind
p508
aVpurchase
p509
ag11
ag61
ag37
ag20
ag20
ag91
ag59
ag72
ag10
ag10
ag27
ag10
ag509
aVcancel
p510
ag47
ag55
ag99
ag63
ag176
ag219
ag19
ag13
ag108
ag10
ag15
ag10
ag11
ag61
ag27
ag15
ag380
ag4
ag8
ag338
ag134
ag33
ag10
ag144
ag17
ag71
aVreveal
p511
ag14
ag10
ag87
ag151
ag12
ag33
ag40
ag41
ag359
ag319
ag292
ag13
ag6
ag59
ag76
ag17
ag10
ag40
ag148
ag61
ag204
ag10
ag6
ag11
ag463
ag24
ag100
ag15
ag33
ag25
ag10
ag96
ag112
ag4
ag59
ag27
ag199
ag10
ag11
ag271
ag220
ag175
ag164
ag10
ag10
aS'go,'
p512
ag105
ag226
aVintend
p513
ag139
ag120
ag391
ag94
ag40
ag24
ag10
aVdrink
p514
ag81
ag116
ag82
ag33
ag10
ag134
ag4
ag15
ag61
ag10
ag15
ag279
ag84
aS'did,'
p515
ag175
ag163
aVhang
p516
ag41
ag40
ag23
ag61
ag61
ag11
ag335
ag15
ag94
ag11
ag12
ag423
ag28
ag10
aVhire
p517
ag114
ag10
ag71
ag11
ag116
ag71
ag116
ag87
ag87
ag40
ag41
ag82
ag70
ag10
ag15
ag10
ag10
ag69
ag6
ag10
ag151
ag13
ag12
ag361
ag36
ag10
ag204
ag100
ag24
ag65
ag10
ag21
ag115
ag15
ag25
ag188
ag10
ag15
ag4
ag15
ag11
ag10
ag10
ag347
ag20
aVcompete
p518
aS'repaired.'
p519
ag140
ag12
ag10
ag420
ag46
ag10
ag7
ag197
ag15
ag41
ag163
aVhighlight
p520
ag175
ag28
ag115
ag4
ag83
ag10
ag27
ag33
ag8
aS'know.'
p521
ag99
ag13
ag10
ag25
ag76
ag13
ag44
ag11
ag4
ag134
ag27
ag160
ag10
ag17
aS'realise'
p522
ag73
ag99
ag114
ag15
ag13
ag12
ag11
ag118
ag114
ag47
aVwent out of
p523
ag10
ag116
ag15
ag71
ag10
ag91
ag70
ag27
ag197
ag10
ag48
ag163
ag183
ag19
ag10
ag119
ag4
ag99
ag10
ag23
ag46
ag13
ag54
aVterrify
p524
ag105
ag261
ag188
ag10
ag72
ag10
aS'get.'
p525
ag87
ag9
ag12
ag33
ag10
ag106
ag10
ag25
ag44
ag4
ag95
ag175
ag163
ag12
ag146
ag42
ag59
ag10
ag161
ag23
ag12
ag17
ag134
ag4
ag112
ag64
ag10
ag76
ag4
ag64
ag10
ag40
ag20
ag10
ag49
ag408
ag40
ag10
ag61
ag222
ag10
ag144
ag64
ag54
ag76
ag4
ag54
ag11
ag134
ag71
ag23
ag12
ag262
ag99
ag12
ag24
ag402
ag30
ag105
ag118
ag377
ag151
ag61
ag12
ag46
ag10
aS'use'
p526
ag256
ag133
ag33
ag13
ag27
ag150
ag10
ag11
ag101
ag204
ag71
ag10
ag20
aVinterrupt
p527
ag15
ag19
ag73
ag28
ag10
ag84
ag84
ag134
ag11
ag4
ag49
ag10
ag116
ag10
ag161
ag233
ag15
ag279
ag10
ag15
ag101
ag40
ag24
ag19
ag134
ag65
ag80
ag41
ag100
ag83
ag4
aVdate
p528
ag133
ag4
ag57
ag3
ag23
ag134
ag4
ag11
ag219
aS'relax.'
p529
ag33
ag15
ag47
ag101
ag54
ag137
ag147
ag37
ag11
aS'know.'
p530
ag186
ag10
ag146
ag105
ag322
ag11
ag72
ag376
ag282
ag73
ag99
ag91
ag160
ag13
ag230
ag4
ag11
aS'realise'
p531
ag10
ag67
ag53
ag3
ag10
ag12
ag146
ag204
ag10
ag82
ag4
ag15
ag91
ag40
ag11
ag36
ag245
ag40
ag10
aVscream
p532
ag20
ag151
ag41
ag11
ag10
ag271
ag15
ag54
ag287
ag361
ag10
ag13
ag177
ag40
aS'alone,'
p533
ag11
ag11
ag6
ag27
ag27
ag10
ag24
ag61
ag118
ag197
ag123
ag247
aS'bought.'
p534
ag10
ag208
ag112
ag134
ag135
ag95
ag151
ag111
ag15
ag87
ag47
ag10
ag29
ag11
aVpaint
p535
ag4
ag10
ag13
ag61
ag61
ag87
ag71
ag17
ag3
ag134
aVexclaim
p536
ag40
ag41
ag8
aVbear
p537
ag77
ag10
ag2
ag15
ag25
aVmight
p538
ag391
ag238
ag197
ag99
ag50
ag50
ag82
ag54
ag11
ag460
ag17
ag12
ag72
ag95
ag8
ag87
ag4
ag76
ag64
ag10
ag59
ag61
ag61
ag40
ag10
aS'had.'
p539
ag44
ag19
aS'organise'
p540
ag133
ag4
ag170
ag59
ag61
ag59
ag40
ag15
ag15
ag10
ag49
ag15
ag42
ag23
aVforce
p541
ag188
ag133
aVrequire
p542
aVaccommodate
p543
ag12
ag10
ag123
ag72
ag41
ag27
aVtend
p544
ag4
ag15
ag24
ag105
ag15
ag61
ag10
ag76
ag328
ag100
ag24
ag10
ag20
ag265
ag40
ag10
ag70
ag10
ag10
ag119
ag19
ag4
ag217
ag61
aVprogramme
p545
aS'guilty.'
p546
ag115
ag115
ag73
ag99
ag76
ag4
ag57
ag163
ag64
ag322
ag134
ag47
ag136
ag72
ag10
ag59
ag10
ag456
ag19
ag168
ag133
ag364
ag10
ag119
ag27
ag99
ag47
ag425
ag135
ag76
ag47
aVmark
p547
ag28
ag115
ag28
ag4
ag15
ag2
aS'realise'
p548
ag133
ag4
ag19
ag15
ag163
ag46
ag40
ag505
ag11
ag535
aVdrop
p549
ag27
ag6
ag46
ag423
aS"'polish'"
p550
aVblow
p551
aVspray
p552
ag9
ag87
ag24
ag28
ag155
ag231
ag61
ag69
ag10
ag12
ag282
ag10
ag36
ag40
aS'us,'
p553
ag11
ag322
ag41
ag4
ag3
ag10
ag94
ag21
ag188
ag10
ag84
ag250
ag15
ag59
ag13
ag27
ag220
ag55
ag11
ag134
ag19
aVdisagree
p554
ag116
ag12
aS'did,'
p555
aS'disappointed.'
p556
ag10
ag10
ag414
ag101
ag436
ag327
ag327
ag27
aS'say,'
p557
ag162
ag186
aS'work,'
p558
ag72
ag94
ag11
ag49
ag135
ag10
ag61
ag10
ag4
ag3
ag183
ag14
ag28
ag10
ag233
ag11
ag23
ag71
ag23
ag10
ag15
ag33
ag12
ag13
ag11
ag10
ag72
ag233
ag114
ag245
ag23
ag12
ag116
ag219
ag10
ag28
ag31
ag70
ag40
ag11
ag46
aVdemand
p559
ag112
ag10
ag27
ag151
ag95
ag4
ag465
ag10
ag15
ag225
ag73
ag108
ag10
ag12
ag152
ag73
ag10
ag197
ag249
ag3
ag4
aVboast
p560
ag10
ag27
ag76
ag28
ag28
ag73
ag8
ag66
ag170
ag167
ag119
ag17
ag24
ag61
ag54
ag82
ag35
ag138
ag2
ag11
ag4
aVaccelerate
p561
ag10
ag115
ag118
ag10
ag133
ag83
ag47
ag15
ag10
ag33
ag10
ag99
ag19
ag99
ag10
ag183
ag11
ag4
ag12
ag23
ag54
ag95
ag146
aS'then,'
p562
ag197
ag133
ag12
ag146
ag76
ag188
ag4
ag64
ag64
ag12
ag230
ag424
ag412
ag119
ag118
ag94
ag94
ag27
ag91
ag115
ag40
ag10
ag41
ag33
ag89
ag33
ag217
ag40
ag24
ag59
ag26
ag122
ag414
ag15
ag15
ag27
ag91
ag15
ag46
ag187
ag4
ag10
ag49
ag12
ag377
ag12
ag10
ag72
ag24
ag424
ag19
ag6
ag17
ag11
ag13
ag20
ag19
ag20
aVmislead
p563
ag47
ag96
ag10
ag119
ag10
ag43
ag4
ag76
ag64
ag70
ag12
aS'take.'
p564
ag371
ag47
ag183
ag148
ag163
aVenvy
p565
ag19
ag66
ag64
ag23
ag163
ag72
ag10
ag59
ag12
ag10
ag123
ag108
aVrepeat
p566
ag10
ag400
ag2
ag61
ag88
ag19
ag40
ag161
ag144
ag19
aVwhisper
p567
ag245
ag15
ag338
ag84
ag132
aVtouch
p568
ag13
ag41
ag7
ag52
ag105
ag3
ag4
ag47
ag113
aS'realise'
p569
ag15
ag40
ag436
ag11
ag172
ag37
aVacquire
p570
aVrecognise
p571
aVfind out
p572
ag2
ag105
ag28
ag15
ag11
ag567
ag348
ag217
ag13
ag292
ag95
ag74
ag6
ag197
ag73
ag37
ag245
ag111
ag11
ag4
ag186
aVapprove
p573
ag40
ag33
ag49
ag13
ag11
ag89
ag4
ag11
ag12
ag163
ag10
ag9
ag71
ag10
ag2
ag13
ag17
ag10
ag54
ag305
ag76
ag23
ag3
ag94
ag23
ag87
ag314
ag10
ag11
ag23
ag13
aVapproach
p574
ag127
ag261
ag116
aS'"mis'
p575
ag336
ag197
ag182
ag9
ag94
ag2
ag46
ag10
ag46
ag19
ag115
ag82
ag108
ag73
ag10
ag233
ag10
ag134
ag116
ag105
ag11
ag25
ag264
ag73
ag57
ag24
ag100
ag101
ag217
ag4
ag10
ag197
ag61
ag24
ag10
ag12
ag46
ag9
ag484
ag10
ag105
ag15
ag271
ag10
ag99
ag338
ag338
ag11
ag87
ag47
ag4
ag12
ag54
ag11
ag10
ag12
ag146
ag11
ag46
ag218
ag28
ag10
ag15
ag71
ag11
ag37
ag20
ag120
ag33
ag119
ag106
ag3
ag4
ag10
ag188
ag2
ag99
ag49
ag411
ag177
ag46
aS'collapse.'
p576
ag28
ag112
ag95
ag95
ag10
ag10
ag13
ag10
aVspeed
p577
aVproduce
p578
ag361
ag10
ag238
ag33
ag20
ag135
ag119
ag10
ag10
ag271
ag15
ag4
ag10
ag27
ag15
aVlast
p579
ag151
ag23
aS'had.'
p580
ag10
ag12
ag11
ag19
ag20
ag46
aVtune
p581
ag106
ag261
ag188
ag136
aS'use'
p582
ag163
ag15
ag122
ag10
ag57
ag107
ag72
ag10
ag10
ag119
ag28
ag47
ag134
ag119
ag147
ag19
ag96
ag52
aVchat
p583
ag36
ag10
ag11
ag10
aVmix
p584
ag13
ag294
ag41
ag40
ag4
ag12
ag6
ag54
ag64
ag11
ag13
ag82
aVannoy
p585
ag105
ag123
ag11
ag10
ag15
ag219
ag24
ag10
ag257
ag10
ag115
ag202
ag50
ag133
ag11
ag104
ag2
ag2
ag10
ag83
ag82
ag10
ag20
ag10
ag72
aVexist
p586
ag135
ag20
ag10
ag119
ag10
ag27
ag156
ag460
ag10
ag23
ag2
ag133
ag4
ag23
ag158
ag15
ag105
ag148
ag10
ag88
ag478
ag347
ag137
ag10
ag4
ag10
ag4
ag76
ag4
ag87
ag57
ag220
ag10
ag59
ag41
ag13
ag41
ag130
ag17
ag127
ag4
ag11
ag134
ag15
ag26
ag76
ag221
ag27
ag63
ag27
ag10
ag8
ag362
ag115
ag23
ag13
aVinfluence
p587
ag101
ag116
ag15
ag148
ag28
ag94
ag46
ag163
ag13
ag37
ag133
ag19
ag73
ag364
aVrelate
p588
ag121
ag114
ag138
ag4
ag184
ag184
ag170
ag4
ag10
ag99
ag73
ag10
ag28
ag28
ag19
ag24
ag465
ag151
ag229
ag64
ag54
ag24
ag50
ag99
ag76
ag24
aS'received.'
p589
ag10
aVlocate
p590
ag69
ag2
ag10
ag230
ag163
ag2
ag10
ag49
ag11
ag10
ag12
aS'choose.'
p591
ag4
ag15
ag37
aVresult
p592
ag188
ag6
ag204
ag11
ag87
ag302
ag112
ag95
ag10
ag11
ag63
ag134
ag134
ag87
ag88
ag94
ag17
ag123
ag13
ag10
ag13
ag172
ag44
ag17
ag17
ag134
ag2
ag23
ag82
ag64
ag115
ag115
ag73
ag119
ag10
ag13
ag277
ag54
ag244
ag37
ag23
ag64
ag10
ag365
ag2
ag74
ag27
ag528
ag194
ag11
ag2
ag229
ag4
ag12
ag15
aVqualify
p593
ag108
ag134
ag61
ag4
ag11
ag74
ag71
ag87
ag94
ag151
ag283
ag233
ag105
ag27
ag300
ag133
ag42
aS'"say'
p594
ag30
ag172
ag19
ag10
ag426
ag95
ag10
ag2
ag4
ag306
ag81
ag10
ag425
ag15
ag27
ag71
ag10
ag83
ag10
ag10
ag8
ag4
ag7
ag13
ag61
ag27
ag66
ag36
ag101
ag314
ag41
ag40
ag13
ag72
ag199
ag187
ag40
ag41
ag13
ag12
ag10
ag28
ag142
ag36
ag10
ag21
ag23
ag96
ag10
ag10
ag456
ag10
ag188
ag81
ag163
ag109
ag8
ag12
ag27
ag91
ag188
ag15
ag27
ag87
ag76
ag13
ag197
ag17
ag47
ag57
ag322
ag12
ag10
ag46
ag94
ag31
ag12
ag10
ag61
ag10
ag353
ag10
ag13
ag123
ag73
ag347
ag15
ag116
ag83
ag2
aS'use'
p595
ag36
ag40
ag116
ag135
ag10
ag17
ag164
ag144
ag6
ag28
ag115
ag116
ag54
ag218
ag114
ag20
ag45
ag122
ag54
ag11
ag238
aVconsult
p596
aVbehave
p597
ag279
aS'take,'
p598
ag10
ag12
ag4
aS'good.'
p599
aS'use'
p600
ag123
ag483
ag20
ag2
ag6
ag28
ag302
ag24
ag15
ag13
ag9
ag302
ag10
ag41
ag76
ag4
ag101
ag217
ag10
ag12
ag13
aS'organise'
p601
ag10
ag2
aVeye
p602
ag15
ag10
ag135
ag247
ag10
ag19
ag28
ag447
ag10
ag447
ag47
ag59
ag10
ag192
ag27
aVhurt
p603
ag146
ag11
ag6
ag41
ag43
ag61
ag4
ag95
ag4
ag15
ag220
ag158
ag10
ag118
ag115
ag148
ag15
ag208
ag265
ag25
aVcapture
p604
ag373
ag63
ag161
aVmisuse
p605
ag61
ag10
ag137
ag220
ag87
ag10
ag61
ag8
ag4
ag3
ag163
ag11
ag25
ag10
ag25
ag322
ag237
ag93
aS'you?'
p606
aVignore
p607
ag12
ag27
ag19
ag63
ag108
ag123
ag261
ag95
ag11
ag4
ag134
ag15
ag10
ag348
ag76
ag133
ag4
ag76
ag25
ag10
ag76
ag279
ag364
aVswear
p608
ag400
ag15
ag261
ag10
ag46
ag87
ag76
ag10
ag119
ag338
ag54
ag45
ag42
ag43
ag4
ag3
ag31
ag20
ag10
ag188
ag33
ag47
ag59
ag76
ag87
ag24
ag15
ag25
ag17
ag17
ag40
ag188
ag15
ag12
ag230
ag71
ag11
ag27
ag54
aS'organise'
p609
ag11
ag28
ag87
ag11
ag82
ag10
ag145
ag28
ag10
ag46
ag119
ag10
ag175
ag94
ag17
ag10
ag27
ag15
ag76
ag10
ag12
ag108
ag87
ag163
ag123
ag4
ag76
ag76
aS'travel.'
p610
ag9
ag4
ag27
ag76
ag188
ag10
ag71
ag11
ag10
ag20
ag84
ag87
ag11
ag10
ag11
ag11
ag4
ag4
ag13
ag65
ag87
ag49
ag134
ag12
ag2
ag60
ag64
aVaccuse
p611
ag27
ag15
ag10
ag87
ag182
ag27
ag11
aS'help.'
p612
ag13
aS'repaired.'
p613
ag70
ag82
ag100
ag87
ag25
ag10
ag27
ag61
ag61
aVrespect
p614
ag229
ag10
aVhit
p615
ag23
ag197
ag615
ag133
ag14
ag4
ag261
ag70
ag13
aS'thought:'
p616
ag26
ag87
ag10
ag96
ag88
ag99
ag12
ag172
ag33
ag54
ag12
ag72
ag273
ag119
ag10
ag28
ag87
ag317
ag10
aVdestroy
p617
ag70
ag114
ag114
ag4
ag50
ag10
ag76
ag10
ag10
ag144
ag160
ag112
ag27
ag11
ag11
ag10
ag87
ag87
aVattack
p618
ag17
ag10
ag19
ag10
ag84
ag4
ag61
ag154
ag6
ag155
ag271
ag10
ag17
ag23
ag175
ag170
ag212
aS'paid'
p619
ag217
ag146
ag17
ag4
ag3
ag122
ag61
ag265
ag27
ag10
ag12
ag204
ag15
ag65
ag70
ag10
aS'realise'
p620
ag204
ag82
ag20
ag415
ag40
ag43
ag69
ag12
ag146
ag23
ag10
ag78
ag99
ag4
ag19
ag14
ag76
ag19
ag20
aVinvestigate
p621
ag10
ag277
aVwould be
p622
aS'closed.'
p623
ag119
ag170
ag186
ag10
aS'stay.'
p624
ag161
ag271
ag23
ag71
ag61
ag77
ag19
ag585
ag15
ag327
ag73
ag27
ag99
ag11
ag10
ag271
ag27
ag197
ag3
ag31
ag20
ag120
ag65
ag11
ag27
ag41
ag40
ag70
ag542
ag11
ag4
ag335
ag10
ag188
ag20
ag19
ag20
ag134
ag19
ag40
ag135
aVoverdraw
p625
ag12
ag160
ag12
ag148
ag6
ag94
ag10
aS'had.'
p626
ag4
ag11
ag15
ag161
ag10
aVapologize
p627
ag282
ag242
aVhack
p628
ag11
ag579
ag37
ag77
ag49
ag20
ag24
ag49
ag36
ag31
ag88
ag170
ag88
ag23
ag76
aVcelebrate
p629
aVmay
p630
ag32
ag119
ag8
ag279
ag150
ag20
ag67
ag27
ag61
ag15
ag365
ag13
ag10
ag13
ag3
ag73
ag47
ag43
ag99
ag12
ag11
aS'born'
p631
ag245
ag66
ag10
aS'use'
p632
ag10
ag11
ag204
ag607
ag233
ag4
ag12
ag2
ag4
ag47
ag108
ag230
aVbroadcast
p633
ag96
ag11
ag172
ag10
ag115
ag271
ag10
aS'bought.'
p634
ag10
ag41
ag182
ag73
ag46
ag111
ag15
ag10
ag10
aS'repaint'
p635
ag70
ag10
ag87
ag287
ag11
ag20
ag10
ag9
ag163
ag19
ag187
ag10
ag2
ag233
ag159
ag292
ag2
ag20
ag23
ag13
ag12
ag20
ag151
ag379
ag23
ag44
ag204
ag96
ag28
ag310
ag87
ag10
ag41
ag84
ag4
ag99
ag43
ag4
ag33
ag314
ag262
ag15
ag94
ag76
aVi'm
p636
ag23
ag7
ag108
ag7
aS'realise'
p637
ag376
ag61
ag10
ag10
ag40
ag11
ag15
ag61
aS'perfect.'
p638
ag19
ag15
ag9
ag25
ag96
ag95
ag17
ag41
ag40
ag186
ag8
ag115
ag27
ag10
ag156
ag243
ag271
ag82
ag27
ag76
ag10
aVpunish
p639
ag82
ag233
ag12
ag10
ag42
ag292
ag15
ag10
ag119
ag123
ag11
ag83
ag25
ag233
ag193
ag79
ag46
ag10
ag2
ag46
ag332
ag151
ag197
ag15
ag136
ag47
ag10
ag322
aVcombine
p640
ag27
ag87
ag87
ag4
ag133
aS'need.'
p641
ag20
ag49
ag10
ag82
ag87
ag24
ag10
ag10
ag59
ag40
ag54
ag12
ag137
ag456
aS'advertise'
p642
ag186
ag8
ag15
ag11
ag4
ag133
aVoccur
p643
ag163
ag310
ag20
ag3
ag10
ag10
ag49
ag20
ag123
ag15
ag11
ag28
ag2
ag10
ag3
ag4
ag11
ag111
ag180
aVvary
p644
ag99
ag40
ag36
ag25
ag10
ag17
ag10
ag118
ag15
ag24
ag123
ag121
ag10
ag13
ag148
ag10
ag336
ag12
ag52
ag13
ag11
ag411
ag10
ag82
ag10
ag94
ag4
ag91
ag47
aVruin
p645
ag84
ag70
ag10
ag69
ag15
ag24
ag100
ag25
ag10
ag10
ag182
ag17
ag19
ag3
ag46
ag40
ag41
ag15
ag10
ag25
ag404
ag163
ag94
ag78
ag15
ag197
ag10
ag28
ag15
ag76
ag76
ag10
ag10
ag61
ag9
ag163
ag151
ag400
ag28
aVwent away
p646
ag264
ag367
ag263
ag10
ag73
aVdecrease
p647
ag10
ag72
ag3
ag2
ag41
ag72
aS'rang'
p648
ag324
ag364
ag192
ag183
ag10
ag11
ag61
aS'know.'
p649
ag156
ag10
ag8
ag7
ag7
ag72
ag137
ag106
ag105
ag93
ag179
ag4
ag115
ag16
ag7
ag607
ag132
ag155
ag306
ag13
ag43
ag116
ag25
ag99
ag106
ag49
aS'sweat'
p650
ag74
ag82
ag17
ag380
ag10
ag27
ag72
ag12
ag49
ag338
ag10
ag322
ag20
ag99
ag73
ag15
ag17
ag101
ag4
ag144
aS'organise'
p651
ag82
ag4
ag23
ag10
ag7
ag114
ag82
ag322
ag20
ag197
ag123
ag163
ag23
ag94
ag27
aS'expected,'
p652
ag99
ag15
ag33
ag456
ag37
ag11
ag324
ag11
ag10
ag41
ag33
ag72
ag23
ag164
ag4
ag244
ag119
ag70
aS'repaired.'
p653
ag40
ag28
aS'am,'
p654
ag106
ag27
aS'use'
p655
ag99
ag63
ag10
aVclear up
p656
ag11
aVis love
p657
ag396
ag47
ag4
ag194
ag94
ag28
ag10
aS'organise'
p658
ag15
ag111
ag120
aVborrow
p659
ag26
ag15
ag123
ag15
ag20
ag73
ag10
ag10
ag114
ag17
ag15
ag177
ag37
ag20
ag87
ag278
ag70
ag70
ag138
ag17
ag99
ag61
aVfly
p660
ag73
aVclaim
p661
ag150
ag15
ag123
ag10
ag115
ag8
ag115
ag10
ag84
ag204
ag20
ag76
ag10
ag84
ag146
ag10
ag20
ag37
ag20
ag12
ag176
ag11
ag10
ag76
ag4
ag23
ag123
ag74
ag283
ag28
ag4
ag76
ag23
ag71
ag69
ag41
ag194
ag61
ag10
ag17
ag54
ag4
ag76
aS'need,'
p662
aVpack
p663
ag217
ag197
ag15
ag28
ag116
ag2
ag3
ag28
ag20
ag46
ag133
aS'minimise'
p664
ag148
ag99
ag10
ag12
ag82
ag15
ag70
ag10
ag230
ag10
ag400
ag13
ag115
ag27
ag11
ag54
ag118
ag106
ag230
ag15
ag279
aVdevastate
p665
aVweep
p666
aVscald
p667
aVpronounce
p668
ag40
ag415
ag320
ag108
ag59
ag10
ag115
ag36
ag266
ag10
ag47
ag116
ag15
ag10
ag10
ag320
ag10
ag11
ag10
aVforgo
p669
aS'know,'
p670
ag197
ag123
ag223
ag329
ag4
ag54
ag11
ag170
ag118
ag10
ag49
ag15
aVexaggerate
p671
ag11
aS'organise'
p672
ag133
ag105
ag28
ag182
ag28
ag35
ag257
ag11
ag24
ag250
ag87
ag84
ag10
ag2
ag10
ag116
ag54
ag116
ag10
ag47
ag15
ag70
ag7
ag4
ag28
ag194
ag88
ag244
ag20
ag144
ag10
ag20
ag120
ag4
ag95
ag10
ag19
ag10
aS'advertised.'
p673
ag194
ag27
ag10
ag10
ag163
ag155
ag105
ag11
ag134
ag10
ag24
ag218
ag188
ag194
ag42
ag175
ag115
ag13
ag26
ag23
ag206
aVguide
p674
aS'paid'
p675
ag379
ag114
aVmourn
p676
ag70
ag123
ag10
ag10
ag11
ag10
ag91
ag24
ag280
ag17
ag170
ag10
ag10
ag70
ag123
ag123
aS'say,'
p677
ag4
ag71
ag10
ag15
ag41
ag40
ag194
ag194
aS'good.'
p678
ag15
ag15
ag40
ag41
ag2
ag265
ag4
ag3
ag10
ag115
ag10
ag10
ag186
ag10
ag10
ag12
ag10
ag10
ag25
ag109
ag115
ag2
ag21
aS'use'
p679
ag15
ag15
ag15
ag155
ag20
ag94
aVgrieve
p680
ag15
ag146
ag19
ag11
ag64
ag11
ag10
ag24
ag61
ag46
ag15
ag33
ag10
ag116
ag15
ag101
ag100
ag24
ag13
aS"it'"
p681
ag12
ag170
ag118
ag47
ag13
ag11
ag27
ag206
ag10
ag11
ag12
ag87
aS'greatful'
p682
ag317
ag10
ag72
ag17
ag133
ag15
ag27
ag123
ag380
ag317
ag393
ag91
ag134
ag74
ag114
ag45
ag49
ag27
ag10
ag47
ag13
ag17
ag10
ag211
ag13
ag37
ag10
ag40
ag20
ag37
ag106
aVexhaust
p683
aVbreathe
p684
ag10
ag41
ag136
ag14
ag13
ag11
ag133
ag4
ag59
ag27
ag40
ag83
ag144
ag17
ag107
ag114
ag19
ag61
ag19
ag2
ag15
ag40
ag99
ag73
ag134
ag114
ag71
ag607
ag28
ag11
ag11
ag76
ag230
ag136
aS"you've"
p685
ag115
ag72
ag4
ag11
ag535
ag134
ag112
ag134
ag10
ag95
ag44
ag4
ag44
ag95
ag83
ag73
ag94
ag151
ag172
ag377
aVstruggle
p686
ag123
ag217
ag639
ag84
ag23
ag12
ag13
aVglad
p687
ag59
ag15
ag367
ag94
ag10
ag15
ag10
ag20
ag54
aS'here.'
p688
ag10
ag94
ag76
ag138
aS'prefer.'
p689
ag76
aS'use'
p690
ag4
ag12
aVhurry
p691
ag376
ag10
ag71
ag108
ag46
ag76
ag99
ag4
ag306
ag123
ag64
ag11
aVhost
p692
ag10
ag211
ag186
ag8
ag15
ag208
ag408
ag7
ag95
aVground
p693
ag43
ag76
ag26
ag24
ag302
ag83
ag78
ag415
ag83
ag11
ag13
ag41
ag40
ag10
ag72
ag10
ag59
ag146
ag12
ag9
ag10
ag2
ag10
ag15
ag23
ag87
ag10
ag137
ag10
ag10
ag137
ag12
aS"it'"
p694
ag73
ag41
ag6
ag183
ag339
ag37
ag99
aS'organise'
p695
ag10
ag91
ag44
aS'good'
p696
ag4
ag43
ag71
aS'paid'
p697
ag9
ag188
ag364
ag158
ag583
ag77
ag4
ag91
ag121
ag8
ag115
ag26
ag4
ag19
ag4
aS'organise'
p698
ag133
ag4
ag15
ag139
ag23
ag10
ag19
ag639
ag11
ag27
ag23
ag17
ag19
ag119
ag21
aS'"shop'
p699
ag15
ag11
ag4
ag322
ag411
ag151
ag27
ag61
ag27
ag115
ag8
ag65
ag8
ag233
ag76
aS'use'
p700
ag46
ag12
ag23
ag23
ag2
ag10
ag83
ag11
ag163
ag197
ag15
ag46
ag12
ag4
ag40
ag292
ag11
ag321
ag10
ag42
ag250
ag42
ag423
ag11
ag41
ag76
ag10
ag10
ag332
ag99
ag17
ag2
ag2
ag15
ag13
ag13
ag15
ag94
ag10
ag4
ag15
ag10
ag11
ag175
ag10
ag72
ag24
ag65
ag377
ag43
ag17
ag123
ag61
ag31
ag20
ag76
ag158
ag133
ag17
ag163
aVexchange
p701
ag17
ag76
ag24
ag156
ag82
ag77
ag76
ag13
ag99
ag150
ag15
ag217
aS'afford,'
p702
ag194
ag87
ag10
ag91
ag106
ag115
ag590
ag50
ag15
ag3
ag4
ag17
ag415
ag197
ag134
aS'think,'
p703
ag96
ag44
aVselect
p704
ag188
ag11
ag66
ag13
ag12
ag10
ag13
ag116
aS'spent.'
p705
ag23
ag4
ag175
ag4
ag314
ag46
ag2
ag69
ag20
ag10
aS'this,'
p706
ag11
ag49
ag83
ag87
ag82
ag305
ag20
ag19
ag15
ag106
ag10
ag31
ag15
ag134
ag49
ag31
ag19
ag15
ag2
ag11
ag114
ag10
ag17
ag27
ag310
ag29
ag10
ag87
ag77
ag49
ag158
ag87
ag59
ag542
ag24
ag27
ag294
ag10
ag218
ag40
ag41
ag11
ag119
ag11
ag9
ag123
ag132
ag24
ag278
ag23
ag110
ag63
ag113
ag10
aVhide
p707
ag15
ag87
ag164
ag10
ag2
ag108
aS'was,'
p708
ag235
ag27
ag197
ag10
ag194
ag49
ag10
ag44
ag71
ag4
ag137
ag310
ag11
ag10
ag13
ag10
ag11
ag91
ag11
ag151
ag87
ag42
ag64
ag10
ag11
ag2
ag72
ag10
ag9
ag94
ag10
ag10
ag324
ag83
ag55
ag148
ag6
ag244
ag168
ag31
ag10
ag116
ag11
ag148
ag383
ag41
ag40
aS"it'"
p709
ag310
ag71
ag10
ag134
ag321
ag23
ag11
ag15
ag54
ag13
ag15
ag25
ag15
ag82
ag61
ag24
ag72
ag49
ag41
ag15
ag230
aS'organise'
p710
ag99
ag42
ag47
ag321
ag4
ag42
ag10
ag279
ag25
ag133
ag160
ag15
ag61
ag212
ag61
ag13
ag20
ag99
ag73
ag54
ag61
ag95
ag11
ag13
aVsuspect
p711
ag88
ag63
ag11
aS'finished.'
p712
ag10
ag11
ag63
ag61
ag76
ag17
ag15
ag331
ag82
ag4
ag11
ag27
ag40
ag41
ag63
ag23
ag170
ag220
ag40
ag41
ag134
ag15
ag72
ag10
ag217
ag115
ag359
ag42
ag116
ag25
ag87
ag15
ag148
ag3
ag15
ag111
ag4
ag95
ag187
ag87
ag3
ag4
ag27
ag164
ag17
ag23
ag11
ag24
ag12
ag41
ag13
ag11
ag99
ag73
ag72
ag3
ag50
ag10
ag40
ag374
ag25
ag115
ag23
ag11
ag244
ag137
ag134
ag116
ag28
ag61
ag33
ag15
ag17
ag20
ag71
ag82
ag10
ag12
ag111
ag37
ag15
ag10
ag122
ag20
ag11
ag106
aVpublish
p713
ag163
ag23
ag72
ag79
ag59
ag10
ag17
ag4
ag119
ag15
aS'know,'
p714
ag4
ag3
ag106
ag133
ag40
ag123
ag4
ag12
ag701
ag40
ag11
ag3
ag20
ag683
ag110
ag10
ag95
ag74
aVanswer you back
p715
ag15
ag148
ag11
ag54
aS'are,'
p716
ag11
ag134
ag4
ag70
ag87
ag10
ag37
ag10
ag76
ag10
ag15
ag333
ag27
ag119
ag36
ag142
ag13
ag10
ag116
ag64
ag10
ag11
ag118
ag348
ag177
ag10
ag122
ag70
ag99
ag73
ag148
ag4
ag82
ag6
ag59
ag20
ag257
ag42
ag65
ag123
ag45
ag61
aS'see,'
p717
ag105
ag61
ag12
ag15
ag9
ag34
ag194
aS'filmed.'
p718
ag27
ag136
ag10
ag4
ag26
ag17
ag9
aS'filmed.'
p719
ag170
aVprogress
p720
ag123
ag27
ag101
ag105
ag590
ag2
ag72
ag28
ag12
ag27
ag6
ag13
ag6
ag23
ag54
ag61
ag72
ag72
ag10
ag17
ag470
ag116
ag27
ag23
ag27
ag11
ag61
ag27
ag25
ag123
aVdemonstrate
p721
ag10
ag12
ag425
ag17
ag123
ag70
ag31
ag133
ag27
ag309
ag10
ag12
ag140
ag54
ag69
ag2
ag425
ag115
ag8
ag87
ag118
ag14
ag46
ag15
ag13
ag197
ag91
ag10
ag11
ag10
ag64
ag393
ag11
ag10
aS'happened.'
p722
ag161
ag61
ag67
ag47
ag230
ag11
ag13
ag19
ag10
ag61
ag197
ag84
ag279
ag95
ag8
ag11
ag12
ag70
ag3
ag4
ag23
aS'need:'
p723
ag87
ag17
ag15
ag15
ag27
ag33
ag71
ag134
ag115
ag33
ag20
ag84
ag64
ag119
ag151
ag10
ag28
ag40
ag15
ag49
ag13
ag11
ag161
ag371
aS'use'
p724
ag10
ag123
ag17
ag106
ag150
ag11
ag54
aVlight
p725
ag474
ag133
ag8
ag71
ag31
ag10
ag12
ag15
ag54
ag55
ag182
ag197
ag238
ag15
ag47
ag15
ag110
ag23
ag27
ag72
ag4
ag11
ag31
ag10
ag4
ag3
ag411
ag71
ag10
ag170
ag268
ag116
ag59
ag169
ag46
ag20
ag87
ag11
aVburst
p726
ag13
ag41
ag12
ag73
ag99
ag247
ag336
ag10
ag249
ag331
ag19
ag146
ag23
ag39
ag64
ag54
ag12
ag10
aS'organise'
p727
ag15
ag33
ag188
ag490
ag322
ag47
ag41
ag40
ag54
aS'said,'
p728
aS'enrol'
p729
ag42
ag73
ag61
ag590
ag36
ag15
ag23
ag10
ag13
ag10
ag10
ag135
ag15
ag23
ag23
ag31
ag10
ag36
ag101
ag2
ag4
ag511
ag59
ag10
ag17
ag27
ag91
ag77
ag40
ag40
ag41
ag10
ag380
ag95
ag10
ag133
ag76
ag24
ag133
ag257
ag73
ag27
aVsurvive
p730
ag245
ag11
ag183
ag10
ag46
ag164
aVrule
p731
ag279
ag167
ag367
ag2
ag82
ag10
ag37
aS'seen.'
p732
ag17
ag310
ag197
aVstayed in
p733
ag50
aVrob
p734
aVwe're going to
p735
ag40
ag41
ag6
ag122
ag116
ag4
ag76
ag13
ag41
ag71
ag46
ag374
ag10
ag243
ag265
ag10
ag94
ag271
ag116
ag87
ag10
ag23
ag72
ag417
ag10
ag105
ag9
ag116
aVbelong
p736
ag15
ag27
ag10
ag347
ag24
ag278
ag105
ag11
ag450
ag15
ag61
ag27
ag4
ag87
ag45
ag78
ag15
ag31
ag11
ag425
ag170
ag197
ag11
ag112
ag15
ag10
ag111
ag10
ag27
ag11
ag164
ag10
aS'advertise'
p737
ag116
ag20
ag128
ag134
ag70
ag33
ag15
ag273
ag82
ag398
ag2
ag396
ag15
ag156
ag99
ag73
ag15
ag17
ag61
ag377
ag11
ag20
ag19
ag4
aS'lay'
p738
ag17
ag10
aVparticipate
p739
ag223
ag223
ag10
ag187
ag11
ag187
ag10
ag8
ag11
ag83
ag19
ag4
ag111
ag265
ag82
ag28
ag11
ag10
ag12
ag11
ag27
ag82
aS'change.'
p740
ag46
ag10
ag425
ag11
ag106
ag20
ag10
ag10
ag322
ag11
ag15
ag233
ag41
ag163
ag197
ag10
ag17
ag136
ag96
ag61
ag113
ag133
ag70
ag9
ag10
ag61
ag84
ag188
ag15
ag10
ag10
ag27
ag15
ag10
ag10
ag120
ag10
ag197
ag19
ag106
ag219
ag136
aVlong
p741
ag17
ag10
ag84
ag19
ag82
ag10
ag349
ag187
ag707
ag24
ag151
ag15
ag31
ag91
ag15
ag10
ag82
ag70
ag15
ag82
ag70
aVspread
p742
ag61
aVwarn
p743
ag11
aVcomplete
p744
ag10
ag83
ag116
ag127
ag443
ag4
ag17
ag76
ag10
ag10
ag134
ag10
ag10
ag4
ag83
ag13
aS'recognise'
p745
ag11
ag13
ag257
aVtreat
p746
aVforward
p747
ag16
ag107
ag639
ag146
ag15
ag28
ag11
ag25
ag10
ag10
ag61
ag12
aS'buy?'
p748
ag11
ag10
ag3
ag4
ag10
ag20
ag15
ag94
ag133
ag24
ag100
ag12
ag13
ag10
ag105
ag377
ag136
ag17
ag411
ag11
ag10
ag19
ag338
ag10
ag447
ag23
ag27
ag65
ag10
ag6
ag586
ag138
ag10
ag15
ag15
ag82
ag23
ag4
ag15
ag133
ag99
ag31
ag376
ag194
ag12
ag10
ag72
ag41
ag41
ag40
ag12
ag27
aVinterview
p749
ag25
ag24
ag23
ag123
ag71
ag12
aVfreeze
p750
ag10
ag168
ag134
ag538
aVfashion
p751
ag61
ag116
ag17
ag10
ag10
ag265
ag25
ag134
ag41
ag40
ag23
ag9
aVcheat
p752
ag101
ag306
ag426
ag41
ag40
ag13
ag197
ag120
ag19
ag194
aS'paid'
p753
ag87
ag13
ag28
ag6
ag4
ag12
aS'take.'
p754
ag13
ag265
ag31
ag20
aS'said,'
p755
ag134
ag147
ag10
ag134
ag13
ag704
ag250
ag10
ag82
ag242
ag27
ag10
ag3
ag76
ag10
ag197
ag15
ag10
ag17
ag217
ag163
ag175
aS'advertise'
p756
ag175
ag4
ag71
ag105
ag20
aVadvance
p757
ag49
ag19
ag10
ag55
ag25
ag489
ag25
ag10
ag6
ag17
ag88
ag28
ag105
ag40
ag41
ag163
ag175
ag70
aVrefurbish
p758
ag15
ag10
ag42
ag10
ag17
ag40
ag11
ag2
ag115
ag4
ag2
ag585
ag163
ag188
ag489
ag161
ag36
ag84
ag219
ag84
ag49
aS'accompanied.'
p759
ag37
ag20
ag20
ag28
ag120
ag54
ag54
ag3
ag10
ag99
ag27
ag10
ag25
ag491
ag17
ag40
ag10
ag87
ag10
ag8
ag25
ag94
ag10
ag163
ag2
ag71
ag4
aVpoint
p760
aVencounter
p761
ag15
ag136
aVsupport
p762
ag19
ag82
ag148
ag10
ag105
ag41
ag99
ag99
ag2
ag13
ag105
ag63
ag63
ag11
ag45
ag194
ag61
aVbeg
p763
ag380
ag10
aS'try.'
p764
ag10
ag13
ag17
ag15
ag78
ag147
ag10
ag40
ag41
ag83
ag61
ag33
ag17
ag71
ag4
ag40
ag41
ag230
ag50
ag148
ag122
ag15
ag4
ag374
ag101
ag208
ag2
ag83
ag105
ag223
ag10
ag11
ag197
ag64
ag15
ag233
ag10
ag49
ag70
ag11
ag194
ag27
ag425
ag13
ag17
ag15
ag111
ag116
ag118
ag34
ag27
ag28
ag10
ag3
ag24
ag100
aS'advertise'
p765
ag310
aVdeepen
p766
ag119
ag116
aS'like,'
p767
ag25
ag15
ag17
ag238
ag579
ag95
ag590
ag44
ag154
ag148
ag27
ag382
ag13
ag2
ag170
ag88
ag108
ag27
ag151
ag10
ag186
ag64
ag61
ag4
ag10
ag212
ag10
ag4
ag10
ag11
ag77
ag11
ag148
ag81
ag24
ag61
ag76
ag61
ag12
ag119
ag188
ag27
ag17
ag10
ag115
ag15
ag630
ag11
ag13
ag205
ag11
ag19
ag10
ag151
ag59
ag72
ag208
ag197
ag46
ag45
ag10
ag163
ag24
ag10
ag71
ag19
ag99
ag73
ag19
ag101
aS'"discount'
p768
ag11
ag207
ag61
ag40
ag11
ag190
ag101
ag19
ag36
ag277
ag11
aS'happen!'
p769
ag82
ag739
ag146
ag583
ag10
aS'rang'
p770
ag320
ag26
ag217
ag10
ag108
ag331
ag10
ag10
ag59
ag10
ag72
ag119
ag4
ag87
ag24
ag542
ag54
ag27
aS'realise'
p771
ag151
ag87
ag94
ag10
ag94
ag46
ag10
ag95
ag10
ag518
ag321
ag11
ag54
ag292
ag2
ag142
ag4
ag10
ag10
ag144
ag4
ag3
ag84
ag151
aS'said:'
p772
ag115
ag10
ag10
ag19
ag20
ag11
ag61
ag47
ag15
ag17
ag15
ag19
aS'queu'
p773
ag10
ag95
ag28
ag118
ag64
aVverify
p774
ag282
ag101
ag13
ag73
ag101
ag10
ag61
ag450
ag338
ag10
ag76
ag82
ag4
ag2
ag163
ag331
ag94
ag116
ag54
ag262
ag27
ag262
ag99
ag73
ag91
ag40
ag71
ag170
ag83
ag11
ag10
ag82
ag4
ag329
ag58
ag10
ag11
ag27
aS'(born'
p775
ag27
ag147
ag15
ag19
ag11
ag40
ag41
ag84
ag148
ag134
ag94
ag23
ag230
ag11
ag192
ag17
ag11
ag10
ag40
ag228
ag23
ag322
ag229
ag151
ag10
ag282
ag73
ag10
ag19
ag20
ag10
ag70
ag70
ag108
ag374
ag10
ag116
ag23
aS'arrive.'
p776
ag133
ag40
ag4
ag82
ag12
aS'more.'
p777
ag42
ag10
ag15
ag24
ag17
ag19
ag76
ag116
ag4
ag27
ag40
ag93
ag425
aS'useful.'
p778
ag34
ag4
ag22
ag87
ag2
ag108
ag71
ag151
ag8
ag82
ag10
ag11
ag10
ag10
ag148
ag155
ag87
ag28
ag76
ag11
ag11
ag13
ag25
ag11
ag61
ag15
ag338
ag10
ag11
ag20
ag37
ag106
aS'said,'
p779
ag20
ag4
ag61
ag47
ag277
aS'paid'
p780
ag306
ag411
aS'live.'
p781
ag10
ag64
ag283
ag30
ag28
aVgo out of
p782
ag269
ag40
ag9
ag167
ag76
ag4
ag10
ag46
aS'organise'
p783
ag2
ag25
ag49
ag193
ag10
ag28
ag170
ag4
ag28
ag83
ag24
ag134
ag10
ag59
ag40
ag391
ag10
ag19
ag91
ag10
ag11
ag54
ag23
ag40
ag10
ag29
ag13
ag17
aS'do.'
p784
ag108
ag123
ag15
ag41
ag40
ag19
ag28
ag170
ag76
ag3
ag15
ag10
ag133
ag10
ag338
ag37
ag118
ag10
ag762
ag483
ag112
ag46
ag158
ag47
ag128
ag322
ag106
aS'read,'
p785
ag119
ag33
aVaccess
p786
ag24
ag100
ag101
ag76
ag73
ag61
ag73
ag10
aVplug
p787
ag11
ag71
ag15
ag33
ag108
ag28
ag45
ag11
aS'paid'
p788
ag166
ag20
ag23
ag13
ag154
ag10
ag43
ag15
ag133
ag194
ag144
aS'agree.'
p789
ag7
ag206
ag7
ag8
ag217
ag84
ag20
ag19
aVlayer
p790
ag11
ag76
ag233
ag37
ag4
ag134
ag338
ag33
ag123
ag27
ag13
ag2
ag10
ag82
ag243
ag59
ag40
ag148
ag369
ag2
ag76
ag10
ag23
ag10
ag10
ag20
ag94
ag10
ag211
ag12
ag11
ag17
aVquit
p791
ag396
ag324
ag244
ag37
ag105
ag229
ag155
aVbare
p792
ag24
ag100
aS'advertise'
p793
ag10
ag2
ag148
ag112
ag59
ag23
ag61
ag10
ag163
ag71
ag10
ag46
ag28
aVcash
p794
ag243
ag10
ag4
ag473
ag8
ag27
ag61
ag123
ag3
ag15
ag115
ag8
ag10
ag163
ag119
ag11
ag123
ag13
ag24
ag10
ag133
ag118
ag27
ag172
ag10
ag137
ag144
ag11
ag12
ag101
ag320
ag134
ag402
ag52
ag415
ag374
ag161
ag4
ag3
ag23
ag47
ag10
ag25
ag10
ag40
ag373
ag133
ag13
ag11
ag15
ag194
ag4
ag3
ag243
ag96
ag11
ag13
ag11
ag12
ag15
ag29
ag10
ag244
ag54
ag10
ag400
ag10
ag204
ag64
ag42
ag549
ag13
ag4
ag12
ag10
aS'bring.'
p795
aVseat
p796
aS'know,'
p797
ag10
ag10
ag29
ag82
ag175
ag47
ag82
ag230
ag11
ag377
ag20
aVconsume
p798
ag148
ag116
ag72
ag133
ag391
ag147
ag43
ag10
ag64
ag204
ag63
ag15
ag50
ag20
ag37
ag20
ag10
ag122
ag163
ag10
ag11
aS'realise'
p799
ag111
ag50
ag133
ag175
ag163
ag41
ag115
ag76
ag4
ag12
ag11
ag197
ag19
aS'use'
p800
aVastound
p801
ag10
ag119
ag58
ag123
ag148
ag10
ag115
ag8
ag4
ag376
ag47
ag20
ag120
ag76
ag259
ag59
ag163
ag41
ag40
ag83
ag82
aVpursue
p802
ag164
ag99
ag42
ag10
ag133
ag158
ag28
ag10
ag40
ag27
ag197
ag197
ag61
ag287
aS'admired.'
p803
ag23
ag7
ag10
ag10
ag415
ag31
ag10
ag73
ag99
ag35
ag194
ag12
ag34
ag24
ag151
ag118
ag36
ag40
ag10
ag119
ag147
ag10
ag116
ag65
ag11
ag10
ag4
ag95
ag116
ag123
ag28
ag155
ag15
ag40
ag123
ag10
ag101
ag660
ag15
ag115
ag4
ag47
ag14
ag27
ag49
aS'painted).'
p804
ag123
ag204
ag135
ag27
ag10
ag135
ag271
ag10
ag69
ag133
ag54
ag76
ag4
ag31
ag12
aS'take.'
p805
ag28
ag10
ag78
ag322
ag136
ag219
ag70
ag13
ag10
ag10
ag374
ag221
ag192
ag10
ag28
ag134
ag10
ag583
ag73
ag69
ag2
ag10
ag484
ag105
ag11
ag104
ag17
aVmatch
p806
ag77
ag27
ag133
ag197
ag23
ag119
ag9
ag230
ag41
ag163
aS'work.'
p807
ag54
ag614
ag175
ag15
ag23
ag23
ag514
ag135
ag15
ag11
ag10
ag27
ag119
ag10
ag10
ag34
ag10
ag23
ag135
aS'held.'
p808
ag10
ag25
ag10
ag10
ag23
ag10
ag10
ag46
ag20
ag320
ag570
ag116
ag134
ag217
ag71
ag123
ag13
aVappeal
p809
ag95
ag108
ag4
ag7
ag2
ag163
ag61
ag15
ag8
ag148
ag44
ag40
ag10
ag28
ag359
ag99
ag10
ag12
ag84
ag29
ag204
aVlend
p810
ag99
ag225
ag10
ag11
ag376
ag23
ag10
ag119
ag10
ag25
ag15
ag15
ag322
ag40
aVwander
p811
aS'realise'
p812
ag11
aVvote
p813
ag425
ag40
ag41
ag12
ag28
aVchance
p814
aVjustify
p815
ag2
ag614
ag100
ag24
ag229
ag172
ag87
ag10
ag163
ag229
ag314
ag82
aVescape
p816
ag615
ag218
ag10
ag95
aVtrack
p817
aS'famous.'
p818
ag19
aVuse
p819
ag74
ag28
ag15
ag10
ag135
ag10
ag46
ag14
ag71
ag170
ag119
ag44
ag15
ag46
aS'organise'
p820
ag614
ag11
ag10
ag12
ag172
ag639
ag55
ag10
aS'organise'
p821
ag101
ag105
ag332
ag10
ag663
ag483
ag94
ag46
ag132
ag61
aVdefend
p822
aVpropose
p823
ag10
ag95
aViron
p824
ag76
ag4
aS'travel.'
p825
ag61
ag484
ag4
ag76
ag13
ag123
ag70
ag31
ag23
ag45
ag156
ag107
aVhumiliate
p826
aS'"it\''
p827
ag87
ag41
aVdeceive
p828
ag10
ag322
ag115
ag44
ag417
ag144
ag123
aVpraise
p829
ag108
aS'criticise'
p830
ag220
ag10
aVtrap
p831
ag96
ag20
ag81
ag28
ag105
ag70
ag23
ag10
ag13
ag10
ag11
ag15
ag73
ag99
ag105
ag10
ag10
ag11
ag319
ag199
ag91
ag10
ag84
ag484
ag118
ag15
ag54
ag271
ag15
ag82
ag15
ag188
ag84
ag15
ag122
ag544
aVdislike
p832
ag478
ag76
ag10
ag94
ag9
ag2
ag95
ag10
ag76
ag119
ag10
ag78
ag187
ag592
ag630
ag538
ag71
ag27
ag396
ag263
ag40
aVwelcome
p833
ag13
ag133
ag146
ag10
ag33
ag160
ag4
ag134
ag134
ag11
ag73
ag76
ag15
ag61
ag105
ag371
ag145
ag10
ag187
ag95
ag159
ag123
ag144
ag43
ag23
ag20
ag20
ag11
ag19
ag15
ag319
ag8
ag508
ag11
ag10
ag24
ag46
ag15
ag10
ag134
ag30
ag10
ag324
ag20
ag82
ag15
ag61
ag365
ag2
ag118
ag316
ag10
aS'forget.'
p834
ag59
ag17
ag15
ag96
aVinterfere
p835
ag4
ag478
ag532
ag61
ag361
ag204
ag230
ag2
ag10
ag31
ag148
ag194
ag50
ag146
ag72
ag47
ag4
ag26
ag76
ag4
ag17
ag20
ag585
ag28
ag11
ag305
ag91
ag371
ag151
ag43
ag54
ag135
ag76
ag87
ag94
ag15
ag10
ag371
ag82
ag199
ag361
ag554
ag10
ag24
ag4
aS'try.'
p836
ag321
ag115
ag10
ag19
ag8
ag23
ag118
ag27
ag391
ag2
ag3
ag4
ag10
ag10
ag83
ag25
ag188
ag42
ag70
ag61
ag31
ag70
ag57
ag4
ag10
ag13
aVintrude
p837
ag19
ag13
ag76
ag148
ag115
ag8
ag186
ag76
ag12
ag10
ag64
ag11
ag262
aVcaused by
p838
ag411
ag87
ag134
ag10
aS'good.'
p839
ag11
ag27
ag10
ag119
ag87
ag377
ag17
ag197
ag74
ag10
ag23
ag23
ag559
ag541
ag27
ag11
ag119
ag391
ag27
ag111
ag20
ag187
ag133
ag72
ag41
ag10
ag10
ag24
ag17
ag33
ag279
ag134
ag3
ag4
ag15
ag15
ag257
ag96
ag17
ag10
ag40
ag97
ag398
ag40
ag59
ag23
ag27
ag19
ag133
ag116
ag39
ag94
aS'expected.'
p840
ag10
ag151
ag10
aVfigure
p841
ag4
aS'travel.'
p842
ag64
ag3
ag4
ag414
ag135
ag158
ag94
ag182
ag10
ag53
ag10
ag23
ag457
ag10
ag425
ag197
ag93
ag144
ag2
ag338
ag731
ag91
ag220
ag40
ag17
ag10
ag70
ag118
aVmake him calm
p843
ag19
ag118
ag170
ag186
ag3
ag95
ag23
ag63
ag10
ag10
ag70
ag163
ag11
aVboil
p844
ag10
ag4
ag20
ag84
ag114
ag27
ag10
ag61
ag87
ag134
ag25
ag17
ag40
ag71
ag10
ag4
ag15
ag47
ag324
aVfeature
p845
ag46
ag37
ag61
ag106
ag46
ag15
ag94
ag11
ag20
ag71
ag19
ag15
ag230
ag6
ag23
ag271
ag135
ag12
ag4
ag61
ag15
ag76
aS"'shopping'"
p846
ag27
ag197
ag204
ag245
aVblame
p847
ag72
ag28
aVrealise
p848
ag14
ag133
ag4
ag4
ag10
ag93
ag10
ag420
ag41
ag40
ag11
ag10
ag47
aS'bring.'
p849
ag12
ag12
ag4
ag27
ag28
ag83
aS'walk,'
p850
ag15
ag10
ag196
ag175
ag23
ag134
ag4
ag134
ag10
ag11
ag144
ag6
ag40
aVsum up
p851
ag13
ag9
ag217
ag245
ag78
ag11
ag484
ag11
ag177
ag115
ag91
ag9
ag96
ag4
ag40
ag17
ag3
ag70
ag15
ag33
ag11
ag82
ag2
ag458
ag335
ag115
ag23
ag379
ag87
ag46
ag188
ag10
ag10
ag10
ag486
ag10
ag12
ag11
ag15
ag71
ag17
ag10
ag105
ag24
ag10
ag61
ag99
ag11
aS'good.'
p852
ag71
ag230
ag163
ag41
ag40
ag2
ag305
ag336
ag41
ag197
ag101
ag41
ag20
ag11
ag331
ag28
ag31
ag726
ag15
aVoverhear
p853
ag84
ag105
ag163
ag41
ag10
ag87
ag123
aS'visit,'
p854
aVwent out
p855
ag182
ag2
ag2
ag463
ag87
ag258
ag116
ag162
ag15
ag4
ag40
ag41
ag194
ag105
ag608
ag197
ag11
ag61
ag10
ag11
ag12
ag10
ag170
ag11
ag10
ag123
ag23
ag474
ag2
ag10
ag587
ag27
aS'use'
p856
ag133
ag13
aS'organise'
p857
ag12
ag4
ag50
ag2
ag27
ag9
ag122
ag10
ag10
ag4
ag187
ag54
ag134
ag10
ag91
ag4
ag64
ag10
ag15
ag76
ag83
ag27
ag12
ag25
ag10
ag40
ag41
ag116
ag11
ag10
ag123
ag7
ag10
ag79
ag12
ag74
ag130
ag2
aVcross
p858
aVdrive
p859
ag27
ag10
ag13
ag106
ag161
ag10
ag15
ag26
ag28
ag35
ag71
ag12
ag40
ag13
ag41
ag193
ag3
ag4
ag15
ag10
ag478
ag24
ag76
ag49
ag2
ag10
ag49
ag335
ag63
ag54
ag123
ag27
ag33
ag10
ag61
ag146
ag12
ag73
ag271
ag10
aS"it'"
p860
ag12
ag40
ag17
ag15
ag47
ag25
ag10
ag33
ag10
ag186
ag133
ag57
ag72
ag9
ag12
ag28
aVpunch
p861
aVshake
p862
ag137
ag220
ag44
ag183
ag99
aVresign from
p863
ag396
ag134
ag23
ag133
ag59
ag28
ag10
ag61
ag15
ag10
ag71
ag133
ag24
ag279
ag21
ag10
ag57
ag70
ag188
ag31
ag4
ag24
ag61
ag204
ag154
ag12
ag4
ag10
ag13
ag9
ag159
ag187
ag11
ag4
ag95
ag10
ag148
ag187
ag10
ag64
ag2
ag24
ag48
ag88
ag61
ag23
ag188
ag10
ag172
ag170
aVaim to
p864
ag261
aS'buy,'
p865
ag116
ag373
ag151
ag305
ag4
ag10
ag10
ag46
ag28
ag12
ag132
ag74
aVcount on
p866
ag332
ag52
ag4
ag279
ag197
ag28
ag61
ag54
ag204
ag2
ag278
ag13
ag119
ag57
ag156
ag71
ag46
ag11
ag37
ag83
ag11
ag83
ag27
aVirritate
p867
ag82
ag17
ag45
ag194
ag199
ag10
ag116
ag11
ag4
ag115
ag23
ag10
ag72
ag279
ag10
aS'realise'
p868
aS'different'
p869
ag41
ag40
ag292
aVsearch
p870
ag82
ag148
ag17
ag15
ag17
ag2
ag15
aS'expected,'
p871
ag82
ag61
ag10
ag61
ag28
ag55
ag10
ag122
ag82
ag79
ag10
ag20
ag30
ag10
ag158
ag76
ag265
ag106
ag10
ag12
ag10
ag188
aVcomment
p872
ag12
ag54
ag146
ag42
ag118
ag101
ag674
ag10
ag75
ag41
ag4
ag163
ag46
ag40
ag59
ag27
ag148
ag10
ag95
ag134
ag116
ag181
ag57
ag24
ag15
ag123
ag15
ag10
aVtolerate
p873
ag47
ag87
ag10
ag31
ag10
ag336
ag15
ag82
ag10
ag19
ag194
ag87
ag15
ag257
ag146
ag96
ag105
ag76
ag10
ag161
ag82
ag40
ag77
ag4
ag15
ag15
ag10
ag84
ag10
ag158
ag711
ag9
aVpush
p874
ag40
ag40
ag15
ag8
ag76
ag212
ag3
ag76
ag59
ag61
ag75
ag10
ag160
ag27
ag25
ag99
ag23
ag23
aVcount
p875
ag10
ag3
ag59
ag24
ag2
ag23
ag25
ag11
ag119
ag15
ag108
ag11
ag17
ag322
ag4
ag42
ag10
ag10
ag212
ag136
aVtempt
p876
aVcost
p877
ag163
aVpromote
p878
ag192
ag19
ag535
ag112
ag12
ag513
ag322
ag15
ag376
ag10
ag99
ag73
ag309
ag15
ag41
ag579
ag106
ag42
ag25
ag321
ag292
ag177
ag23
ag10
ag217
ag67
ag10
ag468
ag115
ag27
ag54
ag87
ag6
ag71
ag70
ag331
ag59
ag40
ag61
ag54
ag46
ag106
ag119
ag188
ag14
ag163
ag10
ag28
ag20
ag40
ag73
ag4
ag15
ag40
ag116
ag870
ag72
ag59
ag57
ag12
ag46
ag87
ag82
ag123
ag870
ag10
ag190
ag94
ag28
ag10
ag194
ag105
ag47
ag10
aS'expected.'
p879
ag108
ag17
ag64
ag58
ag359
ag65
ag24
ag72
ag10
ag95
ag489
ag6
ag19
ag12
ag10
ag11
ag71
ag197
ag146
ag10
ag122
aS'use'
p880
ag33
ag15
ag6
ag2
ag2
ag11
ag20
ag184
ag4
ag4
ag245
ag15
ag17
ag456
ag447
ag11
ag229
ag11
ag10
ag77
ag261
ag10
aS'forget.'
p881
ag24
ag100
ag10
ag161
ag10
ag219
ag47
ag4
aVtrade
p882
ag28
ag123
ag10
aVwritten out
p883
ag17
ag28
ag225
ag47
ag10
aVchase
p884
ag27
ag27
ag163
ag10
ag119
aVinterest
p885
ag4
ag12
ag163
ag292
ag10
ag757
ag41
ag74
ag275
ag23
ag10
ag11
ag367
ag170
ag123
ag614
ag11
ag27
ag57
ag10
ag12
ag11
ag13
ag2
ag73
ag93
ag287
ag629
aS'organise'
p886
ag17
ag9
ag10
ag94
ag10
ag400
ag12
ag19
ag54
ag76
ag4
aS'paid'
p887
ag196
ag101
ag52
ag15
ag336
ag10
ag425
ag46
ag115
ag95
ag134
ag69
ag123
ag20
aVdeafen
p888
ag331
ag32
ag20
ag116
ag17
ag10
aS'prefer?'
p889
ag61
aVfascinate
p890
ag158
ag415
ag42
ag61
ag148
ag116
ag118
aS'use'
p891
ag10
ag24
ag57
ag10
ag123
ag4
aS'refund,'
p892
ag23
ag164
aVhave not
p893
ag73
ag10
ag28
ag743
ag165
ag43
ag42
ag72
ag10
aVhave been
p894
ag41
ag4
ag147
ag17
ag186
ag28
ag10
ag112
ag83
ag40
ag41
ag99
ag73
ag41
ag40
ag707
ag23
ag323
ag23
ag306
ag76
ag87
ag15
ag41
ag11
ag82
aS'remember:'
p895
ag10
ag118
ag196
ag113
ag17
ag10
ag15
ag27
ag61
ag61
ag19
ag43
ag112
ag19
ag27
ag10
ag204
ag43
ag24
ag119
ag28
ag71
ag10
ag15
ag12
ag10
ag17
ag12
ag93
ag119
ag163
ag207
ag71
ag183
aVhike
p896
ag187
ag28
ag15
ag382
ag23
ag10
ag87
ag232
ag19
ag197
ag10
ag152
ag61
aVresist
p897
aVmisunderstand
p898
ag249
ag11
ag23
ag380
ag2
ag87
ag40
ag41
ag133
ag302
ag46
ag43
ag11
ag12
ag2
ag4
ag123
ag17
ag17
ag87
ag27
ag170
ag256
ag82
ag144
ag95
aVstands for
p899
ag4
ag168
ag100
ag377
ag76
ag4
ag27
ag12
ag12
ag6
ag118
ag133
ag61
ag338
ag17
ag11
ag101
ag161
ag44
ag199
ag23
ag4
ag46
aVinstall
p900
ag12
ag115
ag100
ag24
aVobserve
p901
ag123
ag40
ag19
ag134
ag279
ag120
ag10
ag76
ag40
ag15
ag10
aVtriumph
p902
ag10
ag87
ag541
ag106
ag332
ag27
ag11
ag82
aVsign
p903
ag123
ag58
ag10
ag61
ag61
ag11
ag10
ag15
ag10
ag24
ag158
ag111
ag87
ag324
ag287
ag11
aS'done.'
p904
ag10
ag40
ag9
ag4
ag4
ag32
ag70
ag15
ag54
ag73
ag10
ag10
ag71
ag54
ag15
ag380
ag73
ag163
ag41
ag11
ag10
ag10
ag15
ag245
ag10
ag188
ag314
ag87
ag83
ag61
ag73
ag72
ag10
ag6
ag10
ag8
ag109
ag59
ag271
ag170
ag25
ag28
ag88
ag243
ag115
ag61
ag760
ag82
ag23
ag42
ag25
aVspecify
p905
ag77
ag112
ag99
ag73
ag73
ag391
ag707
ag13
ag12
ag11
ag27
ag10
ag14
ag3
ag4
ag3
ag114
ag138
ag87
ag202
ag61
ag162
ag113
ag10
ag197
ag10
aS'analyse'
p906
aS'use'
p907
ag10
ag28
ag10
aVenable
p908
ag203
ag9
ag335
ag10
ag119
ag21
ag10
ag590
ag489
ag49
ag13
ag23
ag40
ag27
ag361
ag10
ag31
aVreserve
p909
ag15
ag12
ag182
ag114
ag204
ag59
ag46
ag82
ag23
ag28
ag96
ag73
ag84
ag54
ag28
ag2
ag120
ag27
ag10
ag119
ag197
ag229
ag130
ag10
ag147
ag15
ag663
ag17
ag10
ag204
ag10
ag21
ag40
ag2
ag133
ag50
ag332
ag147
ag596
ag263
ag262
ag2
ag71
ag27
aVfocus
p910
ag11
ag11
ag4
ag2
aVbeing held
p911
ag133
ag23
ag11
ag306
ag76
ag15
ag10
ag28
ag28
ag10
ag163
ag116
ag15
ag116
ag19
ag161
ag82
ag11
ag76
ag10
ag11
ag400
ag10
ag273
ag20
ag119
aS'enclose'
p912
ag278
ag10
ag15
ag11
ag15
ag120
ag27
ag6
ag6
ag134
ag14
ag29
ag41
ag713
ag47
ag50
ag41
ag40
ag262
ag136
ag12
ag890
ag19
ag10
ag30
ag10
ag20
ag49
ag106
ag19
ag20
ag23
ag63
ag11
ag99
aS'(my'
p913
ag204
ag94
ag41
ag40
ag43
ag133
ag10
ag250
ag24
ag23
ag76
aS'use'
p914
ag12
ag2
ag336
ag250
ag20
ag123
ag27
ag148
ag123
ag15
ag55
ag4
ag134
ag15
ag82
ag12
ag19
ag12
ag12
ag76
ag24
ag76
ag163
ag134
ag11
ag3
ag15
ag61
ag40
ag2
ag17
ag28
ag136
ag42
ag61
aS'take?'
p915
ag66
ag324
ag106
ag128
ag20
ag37
ag10
ag134
ag17
ag79
ag317
ag10
ag585
ag41
ag40
ag15
ag74
ag10
ag543
ag27
ag11
ag15
ag364
ag10
ag15
ag35
ag411
ag71
ag99
ag73
ag8
ag115
ag909
ag50
ag10
ag204
ag65
ag3
ag109
ag8
ag101
ag61
ag11
ag99
ag121
ag27
ag40
ag15
ag27
ag73
ag70
ag70
ag15
ag15
ag148
ag2
ag4
ag46
ag10
ag50
ag164
ag73
ag99
ag4
ag3
ag31
ag15
ag88
ag4
ag17
ag10
ag19
ag4
ag15
ag76
ag54
ag119
ag332
ag11
ag10
ag17
ag287
ag37
ag287
ag20
ag94
ag3
ag45
ag71
ag28
ag4
ag115
ag11
ag262
ag587
ag99
ag91
ag21
ag41
ag87
ag391
ag74
ag73
ag96
ag10
ag10
ag52
ag182
ag10
ag33
ag101
ag4
ag15
ag3
ag4
ag23
ag27
ag116
ag146
ag4
ag10
ag47
ag55
ag11
ag212
ag10
ag70
ag10
ag27
ag33
ag507
ag10
ag194
ag72
ag82
ag105
ag319
ag83
ag43
ag42
ag250
ag250
ag235
ag115
ag28
ag40
ag163
ag11
ag116
ag134
ag287
ag107
ag28
ag13
ag70
ag42
ag61
ag144
ag347
ag23
ag367
ag10
ag271
ag15
ag33
ag314
ag10
ag70
ag82
ag163
ag175
ag59
ag80
ag54
ag27
ag11
ag12
ag146
ag10
ag541
ag144
ag15
ag46
ag114
ag10
ag10
ag116
aS'forgotten.'
p916
ag44
ag10
ag115
ag37
ag105
ag20
ag20
aVthrill
p917
ag80
ag59
ag10
ag59
ag10
ag72
ag156
ag24
ag100
ag4
ag12
ag17
ag15
aVstore
p918
ag36
ag118
ag870
ag116
ag11
ag15
ag617
ag37
ag47
ag4
ag30
ag27
ag202
ag116
ag13
ag116
ag220
ag82
ag630
ag262
ag32
ag105
aVremove
p919
ag4
ag12
ag12
ag20
ag28
ag28
ag264
ag12
ag33
ag11
aS'lose.'
p920
ag10
ag110
ag51
ag194
ag24
ag23
ag12
ag12
ag54
ag23
ag11
ag41
ag415
ag46
ag27
ag12
ag230
ag10
ag9
ag123
ag245
ag10
ag10
ag15
ag134
ag13
ag10
ag19
ag217
ag12
ag10
ag183
ag10
ag23
ag71
ag88
ag4
ag10
ag41
ag207
ag10
ag2
ag59
ag114
ag2
ag3
ag17
aVcorrect
p921
ag72
ag257
ag10
ag139
ag197
ag10
ag151
ag359
ag474
ag197
ag72
ag61
ag133
ag21
ag11
ag27
ag17
ag10
ag61
ag6
ag23
ag264
ag11
ag135
ag105
ag223
ag396
aVride
p922
ag2
ag15
ag20
ag10
ag17
ag2
ag4
ag302
ag11
ag204
ag12
ag144
ag415
ag61
ag19
ag161
ag391
ag76
ag134
ag28
ag28
ag71
ag742
ag10
ag11
ag12
ag133
ag4
ag158
ag10
ag158
ag46
ag61
ag10
ag885
ag9
ag15
ag10
aVdepart
p923
ag219
ag10
ag23
ag15
aS'see:'
p924
ag4
ag61
ag4
ag67
ag10
aS'use'
p925
ag76
ag4
ag23
ag10
ag148
ag134
ag159
ag15
ag874
ag144
ag11
ag36
ag73
ag99
ag76
ag13
aS'travel.'
p926
ag151
ag10
ag47
ag13
ag83
ag105
ag8
ag115
ag24
ag61
ag105
ag163
ag120
ag10
ag54
ag30
ag54
ag11
ag148
ag335
ag28
ag10
ag110
ag10
ag12
ag206
ag13
ag116
ag211
ag19
ag15
ag43
ag206
ag10
ag96
ag10
ag734
ag41
ag17
ag15
ag100
ag24
ag4
ag11
ag163
ag61
ag40
ag41
ag180
ag61
ag10
ag61
ag10
ag134
ag10
ag163
ag175
ag194
ag59
ag10
aS'filmed.'
p927
ag88
ag71
ag2
ag25
ag76
ag183
ag145
ag197
ag163
ag17
ag23
ag76
ag15
ag87
ag12
ag2
ag10
ag27
ag63
ag197
ag61
ag31
ag69
ag25
ag335
ag72
ag10
ag76
ag13
ag61
ag113
ag19
ag15
ag230
ag134
ag72
ag204
ag46
ag26
ag27
ag88
ag11
ag71
ag76
ag12
ag225
ag108
aVgreet
p928
ag20
ag17
ag111
ag4
ag182
ag4
ag10
ag11
ag10
ag12
aS'sailing.'
p929
ag11
ag112
ag12
ag13
ag118
ag10
ag12
ag160
ag15
ag319
ag10
ag144
ag82
ag20
ag4
ag113
ag230
aS'organise'
p930
ag27
ag119
ag82
ag4
ag163
ag112
ag59
aVwrite down
p931
ag12
ag15
ag46
ag61
aS'increase.'
p932
ag163
ag23
ag146
ag10
aS'down.'
p933
ag11
ag27
ag76
ag10
ag76
ag133
ag47
ag10
ag10
ag15
ag314
ag36
ag10
ag11
aVturning down
p934
ag41
ag27
ag19
ag13
ag54
ag23
ag412
ag113
ag47
ag114
ag15
ag663
ag76
ag46
ag20
ag10
ag10
ag100
ag24
ag95
ag101
ag119
ag61
ag134
ag20
ag17
ag15
ag233
ag10
ag15
ag271
ag197
ag95
ag46
ag170
ag83
ag17
ag118
ag28
ag110
ag33
ag309
ag11
ag63
ag136
ag4
ag3
ag94
ag15
ag136
ag77
ag10
aS'use'
p935
ag4
aS'organise'
p936
ag10
ag10
ag84
ag168
ag11
ag76
ag40
ag4
ag81
ag136
ag197
ag46
ag11
ag862
ag122
ag10
ag116
ag70
ag322
ag361
ag52
ag10
ag6
ag268
ag6
ag11
aVreport
p937
ag12
ag10
aS'advertise'
p938
ag115
ag87
ag4
ag10
ag24
ag10
ag110
ag12
ag11
ag76
ag247
ag61
ag54
ag64
ag54
ag40
ag41
ag12
ag20
ag262
aS'specialise'
p939
ag142
ag64
ag23
ag2
ag15
ag175
ag133
ag41
ag40
ag12
ag233
ag105
aVdeny
p940
ag12
ag15
ag46
ag49
ag10
ag296
ag33
ag10
ag135
ag73
ag99
aVshine
p941
ag87
ag87
ag43
ag155
ag163
ag27
ag302
ag2
ag29
ag27
ag17
ag10
ag40
ag28
ag15
ag6
ag27
ag6
ag279
ag175
ag10
ag230
ag2
ag14
ag11
ag10
ag15
aVknock
p942
ag425
ag46
ag256
ag10
ag15
ag513
ag84
ag10
ag353
ag11
ag8
ag115
ag13
ag59
ag133
ag4
ag76
ag115
ag186
ag8
ag10
ag147
ag83
ag112
ag134
ag10
ag8
ag27
ag183
ag87
ag319
ag10
ag271
ag19
ag55
ag19
ag456
ag42
ag468
ag739
ag15
ag15
ag135
ag13
ag173
aS'they?'
p943
ag197
ag20
ag11
ag27
ag40
ag116
aS'attend.'
p944
ag10
ag23
aVspot
p945
ag28
ag33
ag83
ag13
ag87
ag82
ag11
ag373
ag10
ag20
ag23
ag2
ag11
ag91
ag148
ag135
ag163
ag61
aVhug
p946
ag69
ag274
ag40
ag532
ag230
ag11
ag59
ag87
ag163
ag46
ag41
ag40
ag279
ag54
ag15
ag87
ag47
ag111
ag425
ag55
ag188
ag59
ag10
ag72
ag10
ag11
ag54
ag510
ag36
ag19
ag148
ag10
ag72
ag27
ag3
ag31
aVbake
p947
ag70
ag10
ag49
ag63
ag123
ag25
ag23
ag74
ag10
ag88
ag194
ag257
ag27
aS'increasing.'
p948
ag197
aVcompel
p949
aS'organise'
p950
ag858
ag54
ag15
ag23
ag76
ag17
ag19
ag11
ag23
ag10
ag11
ag597
ag10
ag104
ag10
ag42
ag26
ag10
ag54
ag391
ag69
ag73
ag12
ag10
ag4
ag54
ag11
ag76
ag877
ag11
ag188
ag15
ag133
ag194
ag25
ag11
aVuse
p951
aVuse
p952
aVuse
p953
aVuse
p954
aVscare
p955
ag182
ag207
ag8
ag10
ag3
ag7
ag144
ag7
ag87
ag2
ag10
ag54
ag27
ag10
ag118
ag10
ag76
ag23
ag123
ag10
ag115
ag4
ag10
ag379
ag10
ag114
ag161
ag99
ag20
ag72
ag23
ag47
ag148
ag12
ag54
ag61
ag411
ag72
ag12
ag13
ag163
ag87
ag186
ag8
ag7
ag4
ag41
ag10
ag73
ag41
ag72
ag10
ag40
ag11
ag47
ag83
ag17
ag148
ag59
ag40
ag47
ag25
ag40
ag41
ag40
ag212
ag137
ag11
aVinjure
p956
ag106
ag27
ag11
ag10
ag144
ag674
ag164
ag50
ag163
ag10
ag11
ag40
ag59
ag28
ag20
ag23
aVrepresent
p957
ag15
ag10
ag119
ag4
ag278
ag4
ag659
ag10
ag271
ag322
ag47
ag40
ag119
aS'use'
p958
ag42
ag40
ag41
ag11
ag877
ag87
ag10
ag2
aS'use'
p959
ag63
ag46
ag10
ag11
ag2
ag229
ag99
ag262
ag116
ag10
aVthrow
p960
ag105
ag12
ag28
ag76
ag4
ag61
aS'bring?'
p961
aS'closed.'
p962
ag10
ag10
ag15
ag119
ag27
ag27
ag76
ag11
ag54
ag10
ag10
ag27
ag12
ag28
ag310
ag10
ag27
aVprint
p963
ag119
ag83
ag223
ag20
ag2
ag10
ag139
ag61
ag232
ag28
ag10
ag101
ag119
ag71
ag11
ag4
ag192
ag10
ag161
ag30
ag114
ag2
ag123
ag2
ag328
ag12
aVcomfort
p964
ag121
ag61
ag10
ag296
ag26
ag76
ag8
ag10
ag115
ag115
ag8
aS'before.'
p965
ag10
ag10
ag542
ag12
ag146
ag217
ag15
ag54
aVring
p966
ag10
ag15
ag82
ag19
ag46
ag118
ag76
ag514
ag7
ag10
ag23
ag61
ag146
ag3
ag19
ag88
ag10
ag20
ag256
ag59
ag20
ag76
ag23
ag10
ag15
ag194
ag4
ag43
ag11
ag71
ag10
ag324
ag322
aS'realise'
p967
ag10
ag49
ag115
ag61
ag115
ag109
ag8
ag163
ag71
ag15
ag859
ag10
ag11
ag26
ag64
ag11
ag163
ag207
ag4
ag27
ag15
ag83
ag87
ag59
ag40
ag41
ag4
ag25
ag12
ag91
ag302
ag182
ag105
ag10
ag10
ag23
ag10
ag23
ag137
ag15
ag27
ag64
ag54
ag12
ag4
ag70
ag17
ag10
ag100
ag24
ag82
ag46
ag95
ag4
ag10
ag27
ag119
ag12
ag4
ag12
ag13
aVbet
p968
ag15
ag13
ag11
ag347
ag338
ag13
ag279
ag19
ag100
ag24
ag23
ag6
ag138
ag332
ag118
ag23
ag115
ag2
ag15
ag10
ag61
ag15
ag2
ag99
ag73
ag331
ag17
ag12
ag33
ag61
ag15
ag184
ag15
ag151
aS'advertise'
p969
ag10
ag17
ag12
ag4
ag120
ag10
ag683
ag123
ag182
ag64
ag63
ag11
ag17
ag41
ag11
ag82
aS'remember,'
p970
ag11
ag37
ag338
ag12
ag4
ag23
ag54
ag64
ag54
ag76
ag46
ag150
ag161
ag54
ag82
ag163
ag11
ag10
ag7
ag8
ag115
ag279
ag10
ag116
aS'know,'
p971
ag27
ag302
ag10
ag73
ag99
ag11
ag61
ag12
ag87
ag217
ag12
ag10
ag119
ag4
ag133
ag188
ag19
ag24
ag153
ag10
ag59
ag11
ag47
ag617
ag123
ag10
ag100
ag24
ag6
ag6
ag13
ag12
ag15
ag2
ag82
ag133
ag49
ag42
ag3
ag156
ag17
ag314
ag25
ag99
ag367
ag28
ag87
ag24
ag59
ag10
ag15
ag10
ag61
ag161
ag583
ag46
ag4
ag473
ag163
ag82
ag71
ag11
ag287
ag108
ag10
ag46
ag12
ag425
ag61
ag10
ag11
ag271
ag71
aS'paid'
p972
ag197
ag383
ag532
ag74
ag27
ag11
ag212
ag27
ag88
ag95
ag10
ag19
ag4
ag36
ag2
ag170
ag23
ag197
ag94
ag54
ag542
ag23
aVbabysit
p973
ag61
ag10
ag64
aVfire
p974
ag134
ag59
ag10
ag26
ag24
aS'nice.'
p975
ag170
ag4
ag10
ag119
ag135
ag503
aVtie
p976
ag215
ag156
ag99
ag25
ag20
ag20
aS'organise'
p977
ag133
ag4
ag2
ag279
ag123
ag70
ag197
ag10
ag148
ag148
ag119
ag204
ag188
ag10
ag84
ag65
ag108
ag15
ag170
ag73
ag27
ag96
ag411
ag28
ag287
ag15
ag108
ag9
ag17
ag10
aS'did,'
p978
ag27
ag23
ag123
ag61
ag10
aVdesign
p979
ag28
ag283
ag10
ag134
ag314
ag61
ag37
ag115
ag64
ag12
ag3
ag10
ag37
ag10
ag587
ag4
ag25
ag10
ag10
ag71
ag54
ag2
ag111
ag43
ag10
ag2
ag4
ag15
ag95
ag10
ag138
ag197
ag28
ag238
ag823
ag197
ag99
ag73
aS'use'
p980
ag146
ag11
ag63
ag133
ag40
ag87
ag10
ag70
aS'repaired.'
p981
ag10
ag119
ag4
ag3
ag120
ag73
ag148
ag116
ag28
ag220
ag203
ag194
ag450
ag83
ag292
ag61
ag11
ag84
ag41
ag8
ag151
ag9
ag27
aS'happier.'
p982
ag544
ag503
ag6
ag6
ag2
ag6
ag10
ag280
ag11
ag10
ag163
ag146
ag61
ag10
ag17
ag10
ag15
ag15
ag64
aVdeliver
p983
ag10
ag979
ag76
ag380
ag133
ag27
ag99
ag425
ag10
ag27
ag275
ag138
ag197
ag194
ag10
ag510
ag20
ag99
ag10
ag4
ag11
ag46
ag41
ag17
ag20
ag10
ag20
ag105
aS'run.'
p984
ag63
ag116
ag10
ag91
ag271
ag3
ag20
ag10
ag50
ag10
ag161
ag99
ag73
ag10
aS'made.'
p985
ag19
ag338
ag70
aS'redecorate'
p986
ag111
ag8
ag47
ag111
ag40
ag415
ag82
ag116
ag13
ag247
ag43
ag114
ag123
ag749
ag76
ag11
ag82
ag205
ag10
ag10
ag73
ag11
ag11
ag23
ag48
ag146
ag30
ag338
ag17
ag27
ag10
ag188
ag11
ag4
ag76
ag87
ag10
ag4
ag353
aS'use'
p987
ag83
ag187
ag197
ag47
ag154
ag4
ag10
ag118
ag105
ag71
ag27
ag261
ag70
aVswitch
p988
ag17
ag6
ag6
ag97
ag238
ag10
ag87
ag713
ag24
ag3
aS'organise'
p989
ag88
aS"we'd"
p990
ag298
ag71
ag148
ag15
ag146
ag10
ag7
ag27
ag115
ag15
ag26
ag91
ag91
ag41
ag27
ag29
ag133
ag99
ag10
ag100
ag24
ag76
ag61
ag119
ag163
ag87
ag4
ag84
ag46
ag663
ag10
ag148
ag190
ag12
ag27
ag42
ag146
ag259
ag27
ag2
ag52
ag36
ag6
ag123
ag212
ag95
ag28
ag180
ag101
aVown
p991
ag10
ag10
ag15
ag507
ag161
ag13
ag10
ag187
ag243
ag10
ag10
ag23
ag11
ag4
ag287
aS'realise'
p992
ag233
ag13
aS'took,'
p993
ag25
ag13
ag40
ag10
ag25
ag10
ag59
ag10
ag35
ag76
ag40
ag82
ag170
ag123
aVsite
p994
ag33
ag28
ag4
ag76
ag17
ag61
ag13
ag105
ag106
ag23
ag12
ag4
ag786
ag10
ag136
ag134
ag10
ag115
ag10
ag415
ag380
ag204
ag82
ag7
ag4
ag115
ag4
ag177
ag17
ag100
ag24
ag15
ag59
ag15
ag219
ag33
ag79
ag12
ag12
ag15
ag84
ag423
ag61
ag123
ag11
ag23
ag28
ag28
ag123
ag371
ag145
ag10
ag40
ag2
aVenrich
p995
ag380
ag11
ag43
ag660
ag615
ag21
ag23
aS'advertise'
p996
ag245
ag11
ag41
ag19
ag40
ag11
ag151
ag76
aS'interviewed.'
p997
ag13
ag24
ag233
ag101
ag2
ag13
ag148
ag162
ag27
ag223
ag13
ag306
ag4
ag10
ag115
ag366
ag853
ag23
ag27
ag3
ag47
ag205
ag6
ag13
ag426
ag25
ag20
ag25
ag20
ag377
ag197
ag15
ag10
ag12
ag10
ag6
ag15
ag71
ag158
ag33
ag10
ag629
ag31
ag118
ag374
ag194
ag10
ag559
ag10
ag32
ag100
ag24
ag164
ag71
ag10
ag72
ag219
ag23
ag567
ag115
ag54
ag95
ag27
ag57
ag10
ag64
ag64
ag20
ag37
ag20
ag87
ag15
aS"'shop"
p998
ag23
ag27
ag10
ag27
ag123
ag170
ag11
ag15
ag148
ag11
ag44
ag4
ag25
ag10
ag188
ag15
ag23
ag10
ag13
ag11
ag87
ag4
ag76
ag44
ag134
ag10
aVcoach
p999
ag33
ag10
ag336
ag66
ag20
ag184
ag10
ag194
ag12
ag54
ag42
ag10
ag40
ag41
ag54
aS'bring?'
p1000
aS'good.'
p1001
ag123
ag123
ag36
ag4
ag95
ag95
ag76
ag83
ag133
ag4
ag114
ag10
ag25
ag69
ag94
ag76
ag4
ag164
aS'realise'
p1002
ag27
ag76
ag24
ag87
ag47
ag10
ag42
ag542
ag73
ag627
ag84
ag336
ag123
ag74
ag10
ag3
ag27
ag61
ag24
ag15
ag8
ag3
ag94
ag10
ag20
aVconfess
p1003
ag10
ag177
ag12
ag20
ag76
ag15
ag190
ag12
ag10
ag35
ag310
ag40
ag163
ag120
ag44
ag100
ag24
ag76
ag27
ag186
ag27
ag10
aS'decorated.'
p1004
ag70
ag184
ag194
ag10
ag10
ag15
ag17
ag40
ag15
ag17
ag10
ag186
ag10
ag134
ag27
ag704
ag46
ag160
ag206
ag335
ag11
ag94
ag4
ag70
ag70
ag95
ag27
ag11
ag64
ag188
ag10
ag10
ag19
ag61
ag27
ag361
ag28
ag218
ag24
ag20
aVwere shown
p1005
ag4
ag112
ag40
ag11
ag101
ag26
ag13
ag11
ag11
ag25
ag6
ag277
ag219
ag11
ag133
ag271
ag10
ag25
ag10
aS'fun.'
p1006
ag94
ag148
ag119
ag20
ag96
ag10
ag40
ag15
ag17
ag23
ag305
ag40
ag19
ag95
ag10
ag72
ag220
ag82
ag95
ag11
ag71
ag238
ag61
ag24
ag17
ag10
ag11
ag314
ag155
ag148
ag374
ag10
ag11
ag204
ag54
ag199
ag12
ag11
ag119
ag15
ag10
ag6
ag12
ag21
ag10
ag164
ag147
ag115
ag6
ag4
ag55
ag10
ag10
aS'nice.'
p1007
ag219
ag23
ag11
ag147
ag15
ag101
ag10
ag72
ag49
ag73
ag138
ag59
ag10
ag250
ag4
aS'shopping.'
p1008
ag11
ag82
ag20
ag76
ag12
ag11
ag23
ag76
ag4
ag194
ag265
ag23
ag2
ag94
ag108
ag13
ag4
ag20
ag3
ag20
ag146
ag12
ag17
ag106
ag161
ag22
ag69
ag10
ag10
ag322
ag89
ag20
ag10
ag101
ag134
ag2
ag64
ag15
ag10
aS'see.'
p1009
ag322
ag10
ag182
ag182
ag10
ag164
ag10
ag230
ag148
ag15
ag10
ag10
ag219
ag10
ag10
ag76
ag88
ag17
ag163
ag23
ag27
ag10
ag60
ag27
ag134
ag37
ag590
ag221
ag4
ag12
ag347
ag84
ag10
ag61
ag115
ag8
ag72
ag10
ag13
ag11
ag10
ag13
ag163
ag45
ag746
ag271
ag53
ag11
ag353
aVfancy
p1010
ag11
ag24
ag80
ag12
ag72
ag10
ag11
ag76
ag163
aVinitiate
p1011
aVfetch
p1012
ag319
ag12
ag96
ag10
aVraise
p1013
ag282
aVkick
p1014
ag225
ag10
ag182
ag17
ag82
ag219
ag19
ag94
ag87
ag66
ag19
ag10
ag114
ag20
ag28
ag17
ag17
ag11
ag59
ag95
ag4
ag11
ag10
ag168
ag10
ag10
ag11
ag122
ag37
ag463
ag19
aS'recognise'
p1015
ag4
ag17
ag10
ag61
ag175
ag101
ag61
ag28
ag27
ag20
ag314
aS"it'"
p1016
ag59
ag13
ag627
ag24
ag10
ag28
ag61
ag10
ag11
ag159
ag322
ag40
ag82
ag151
ag10
ag40
ag202
ag13
ag10
ag64
ag61
ag163
ag4
ag15
ag10
ag289
ag188
ag10
ag27
aS'filmed.'
p1017
ag59
ag40
ag91
ag6
ag116
ag21
ag15
aS'imagine?'
p1018
ag36
ag27
ag136
ag118
ag106
ag27
ag27
ag61
ag63
ag61
ag10
ag376
ag4
ag41
ag9
ag17
ag10
ag144
ag11
ag83
ag181
ag110
ag182
ag122
ag37
ag207
ag101
ag287
ag24
ag100
ag115
ag271
ag10
ag447
ag10
ag10
ag17
ag4
ag15
ag84
ag61
ag10
ag42
ag322
ag59
ag10
ag6
aVreflect
p1019
ag203
ag322
ag71
ag96
ag192
ag136
ag14
ag41
ag40
ag2
ag175
ag61
ag15
ag99
ag4
ag473
ag28
ag40
ag135
ag83
ag61
ag20
ag383
ag10
ag113
ag91
ag305
ag450
ag164
ag72
ag10
ag19
ag59
ag10
ag12
ag23
ag59
ag40
ag2
ag10
ag73
ag10
ag73
ag99
aVpermit
p1020
ag134
ag87
ag1020
ag10
ag6
ag49
ag937
ag27
ag161
ag11
ag42
ag4
ag72
ag19
ag37
ag197
ag331
ag94
ag518
ag10
ag199
ag10
ag82
ag135
ag317
ag101
ag24
ag44
ag95
ag186
ag4
ag12
ag39
ag217
aS'take.'
p1021
ag64
ag320
ag99
ag61
ag100
ag24
ag15
ag17
ag4
ag10
ag110
ag151
ag338
ag10
ag155
ag82
ag450
ag10
ag1013
ag94
aS'agree,'
p1022
ag10
ag15
ag151
ag115
ag590
ag23
aS'use'
p1023
ag10
ag27
ag69
aS'see,'
p1024
ag317
ag27
ag484
ag23
ag123
ag170
ag26
aVspoil
p1025
ag95
ag10
ag116
ag12
ag95
ag10
ag483
ag12
ag10
ag20
ag918
ag15
ag58
ag172
aS'filmed.'
p1026
ag11
ag12
ag82
ag411
ag13
ag316
ag2
ag11
ag217
ag27
ag10
ag158
ag61
ag250
ag23
ag120
ag10
ag20
ag14
ag82
ag188
ag4
ag55
ag309
ag15
ag40
ag59
ag146
ag24
ag12
ag41
ag41
ag10
ag918
ag43
ag87
ag151
ag72
ag11
ag91
ag110
ag10
ag95
ag44
ag11
ag134
ag50
ag202
ag2
ag111
ag15
ag11
ag40
ag41
ag28
ag10
ag82
ag10
ag61
ag24
ag94
ag10
ag197
ag43
ag73
ag256
ag94
ag23
ag84
ag3
ag10
ag72
ag42
ag15
ag94
ag24
ag100
ag118
ag17
ag28
ag11
ag25
ag10
ag101
ag101
ag100
ag24
ag275
ag133
ag133
ag42
ag25
aVfrustrate
p1027
aVloose
p1028
ag134
ag52
ag229
ag233
ag163
ag11
ag545
ag73
ag24
ag87
ag172
aS'had!'
p1029
ag10
ag40
ag59
ag415
ag393
ag168
ag4
ag30
ag317
ag19
ag40
ag20
ag23
ag30
ag279
ag10
aS'help.'
p1030
ag41
ag13
ag61
ag10
ag17
ag17
ag112
ag10
ag15
ag17
ag10
ag82
ag163
ag105
ag27
ag188
ag425
ag10
ag21
ag11
ag13
ag73
ag91
ag82
ag391
ag61
ag10
ag72
ag10
ag147
ag50
ag36
ag238
ag24
ag100
ag115
ag87
ag10
ag314
ag61
ag11
ag116
ag17
ag105
ag27
ag27
ag17
ag66
ag164
aVfaint
p1031
ag161
ag146
ag42
ag45
ag12
ag112
ag7
ag197
ag115
ag361
ag99
ag73
ag271
ag20
ag10
ag11
ag23
ag10
ag15
ag15
ag40
aVrelieve
p1032
ag118
aVsignpost
p1033
ag17
ag66
ag52
ag367
ag170
ag40
ag116
ag541
ag23
ag93
ag49
ag65
ag219
ag40
ag2
ag2
ag84
ag105
ag279
ag10
ag96
ag47
ag27
ag23
ag99
ag73
ag23
ag54
ag426
ag61
ag6
ag11
ag23
ag116
ag424
ag54
ag15
ag133
ag82
ag25
ag163
ag61
ag163
ag207
ag614
ag13
ag118
ag52
ag40
ag81
ag630
ag289
ag28
ag10
ag105
ag24
ag3
ag4
ag88
ag170
ag28
aVemploy
p1034
ag16
aS'wait!'
p1035
ag40
ag17
ag23
aS'realise'
p1036
ag13
ag123
ag70
ag82
ag2
ag23
ag36
ag134
ag28
ag28
ag61
aS'"did'
p1037
ag76
ag15
ag61
ag71
ag71
ag163
ag134
ag73
ag11
ag73
ag13
ag30
ag30
ag4
ag170
ag28
ag66
ag215
ag17
ag10
aS'week,'
p1038
ag15
ag55
ag94
ag123
ag91
ag10
ag10
ag12
ag4
ag15
ag20
ag33
ag84
ag351
ag10
aVdesire
p1039
ag136
ag20
ag10
ag17
ag41
ag40
ag25
ag10
ag116
ag82
ag105
ag204
ag338
ag2
ag94
ag347
ag15
ag71
ag197
ag218
ag101
ag29
ag40
ag10
ag332
ag136
ag112
ag87
ag13
ag73
aS'use'
p1040
ag8
ag151
ag4
ag76
ag15
ag10
ag100
ag24
ag17
ag376
ag156
ag15
ag83
ag180
ag13
ag411
ag28
ag23
ag175
ag163
ag513
ag41
ag42
ag41
ag40
ag151
ag197
ag161
ag10
ag13
ag244
ag233
ag17
ag447
ag11
ag77
ag23
ag11
ag54
ag25
ag11
ag10
ag12
ag99
ag73
ag105
ag41
ag15
ag133
ag197
ag15
ag88
ag28
ag19
ag11
ag28
aS'be:'
p1041
aS'"do'
p1042
aS'it?'
p1043
ag11
ag13
ag84
ag2
ag10
ag45
ag49
aS'relax,'
p1044
ag54
ag14
ag57
aS"'shopping'."
p1045
ag21
ag12
ag146
ag46
ag23
ag18
ag133
ag120
ag332
ag10
ag11
ag78
ag24
ag161
ag10
ag59
ag46
ag41
ag20
ag10
ag24
ag118
ag10
ag10
ag47
ag13
ag116
ag245
ag105
ag10
ag119
ag6
aS'drink.'
p1046
ag49
ag30
ag10
ag76
ag9
ag36
ag82
ag15
ag82
ag70
ag10
ag172
ag76
ag23
ag40
ag41
ag40
ag41
ag113
ag15
ag4
ag147
ag412
ag76
ag374
ag59
ag10
ag57
ag24
ag47
ag15
ag10
ag10
ag27
ag23
ag61
ag134
ag83
ag134
ag23
ag10
ag64
ag217
ag57
ag17
ag15
ag41
aVexpose
p1047
ag99
ag99
ag116
ag13
aS'work,'
p1048
ag33
ag82
ag40
ag120
ag23
ag160
ag322
ag17
ag11
ag59
ag12
ag10
ag10
ag183
ag15
ag20
ag23
ag21
ag10
ag17
ag135
ag415
ag99
ag336
ag164
ag75
ag10
ag74
ag10
ag7
ag279
ag10
ag61
ag41
ag13
ag133
ag10
ag31
ag40
ag118
ag15
ag70
ag19
ag731
ag40
ag15
ag10
ag116
ag47
ag10
ag10
ag49
ag10
ag11
ag211
ag46
ag473
ag13
ag82
ag151
ag95
ag374
ag23
aS'(number'
p1049
ag15
ag15
ag195
ag83
ag182
ag61
ag2
ag908
ag83
ag40
ag12
ag76
ag391
ag76
ag84
ag106
ag27
ag60
ag4
ag11
ag400
ag8
ag87
ag447
ag257
ag23
ag10
ag279
ag13
ag875
ag61
ag196
ag197
ag118
ag10
ag105
ag425
ag11
ag425
ag514
ag63
ag10
ag94
ag10
ag26
ag215
ag516
ag371
ag10
ag314
ag412
ag40
ag41
ag10
ag134
ag15
ag8
ag40
ag197
ag758
ag70
aS'be,'
p1050
ag19
ag348
ag23
ag10
ag4
ag76
aVanalyze
p1051
ag359
ag10
ag15
ag10
ag11
ag308
ag10
ag219
ag2
ag28
ag837
ag349
ag54
ag11
ag27
ag514
ag219
ag70
ag2
ag49
ag61
ag2
ag59
ag42
ag15
ag133
ag4
ag133
ag24
ag271
ag4
ag10
ag514
ag10
ag484
ag42
ag243
ag58
ag271
aS'paid'
p1052
ag41
ag11
ag99
ag71
ag11
ag310
ag10
ag115
ag19
ag23
ag10
ag10
ag23
ag87
ag15
ag71
ag8
ag208
ag107
ag230
ag101
ag219
ag163
ag73
ag245
ag11
ag13
ag27
ag15
ag10
ag15
ag10
ag11
ag400
ag411
ag96
ag204
aS'realise'
p1053
ag105
ag10
ag47
ag11
ag27
ag230
ag112
ag10
aS'won.'
p1054
ag4
ag264
ag10
ag20
ag11
ag11
ag12
ag110
ag19
ag10
ag82
ag55
ag54
ag11
ag220
ag473
ag10
ag559
ag10
ag17
ag6
ag27
ag83
ag2
ag87
ag144
ag22
ag10
ag40
ag41
ag43
ag425
ag64
ag310
ag10
ag72
ag10
ag134
ag10
ag45
ag134
ag27
ag39
aVseam
p1055
ag10
ag134
ag4
ag584
ag15
ag12
ag15
ag11
ag101
ag338
ag24
ag100
ag25
ag76
ag17
ag320
ag105
ag42
ag25
ag19
ag70
ag10
ag57
ag194
ag492
ag101
ag100
ag24
ag2
ag108
ag27
ag134
ag71
ag59
ag309
ag151
ag563
ag99
ag99
ag19
ag41
ag40
ag47
ag11
ag146
ag10
ag12
ag105
ag118
aVshow me
p1056
ag13
ag28
ag71
ag115
ag17
ag49
ag10
ag11
ag61
ag50
ag83
aS'super.'
p1057
ag27
ag88
ag11
ag15
ag10
ag11
ag3
ag11
ag15
ag10
ag41
ag99
ag73
ag10
ag13
ag484
ag197
ag20
ag335
ag833
ag40
ag11
ag6
aS'believe,'
p1058
ag82
ag183
ag61
ag4
ag100
aVfit
p1059
ag15
ag118
ag11
ag4
ag10
ag27
ag134
ag91
ag134
ag10
ag49
ag12
ag10
ag32
ag46
ag32
ag2
ag13
ag163
ag94
ag94
ag12
aS'are,'
p1060
ag11
ag168
ag61
ag30
ag10
ag10
ag47
ag23
ag23
ag82
ag4
ag3
ag40
ag41
ag212
ag684
ag54
ag11
ag277
ag15
ag627
ag10
ag25
ag12
ag11
ag10
ag71
ag70
ag133
ag10
ag94
ag10
ag32
ag32
ag13
ag11
ag12
ag25
ag63
ag6
ag314
ag14
ag134
ag134
aS'use'
p1061
ag25
ag64
ag54
ag64
ag15
ag72
ag23
ag10
ag40
ag19
ag10
ag12
ag45
ag137
ag10
ag72
ag137
ag27
ag94
ag207
ag123
ag46
aVcure
p1062
aVcreep
p1063
ag10
ag11
ag271
ag72
ag133
ag4
ag61
ag11
ag74
ag24
ag57
ag77
ag14
ag11
ag316
ag13
ag11
aS'apologise'
p1064
ag108
ag27
aS'filmed.'
p1065
ag42
ag17
ag93
ag15
ag212
ag101
ag2
ag101
ag70
ag42
ag40
ag535
ag71
ag40
ag116
ag10
ag27
ag95
ag25
ag186
ag194
ag221
ag13
ag28
ag505
ag197
ag2
ag306
ag10
ag116
ag88
ag27
ag111
ag15
ag376
ag49
ag12
aVtake part in
p1066
ag10
ag23
ag33
ag158
ag87
ag11
ag73
ag10
ag9
ag135
ag137
ag4
ag11
ag12
ag6
ag6
ag40
ag163
ag144
ag82
ag964
ag99
ag118
ag10
ag27
aS'given.'
p1067
ag158
ag66
ag219
ag322
ag88
ag17
ag194
ag413
ag4
ag133
ag120
ag15
ag17
ag244
ag511
ag150
ag630
ag511
ag72
ag41
ag10
ag12
ag33
ag197
ag82
ag28
ag172
ag82
ag10
ag197
ag75
ag11
ag197
ag27
ag8
ag76
ag148
ag52
ag278
aS'(group'
p1068
ag123
ag192
ag4
ag244
ag21
ag87
ag425
ag42
ag41
ag349
ag28
ag320
ag46
ag182
ag76
ag79
ag61
ag99
ag194
aS'given.'
p1069
ag8
ag115
ag19
ag310
ag4
ag76
ag10
ag188
ag61
ag15
ag17
ag25
ag76
ag10
ag28
aS'filmed.'
p1070
ag119
ag88
ag27
ag15
ag15
ag61
aVclothe
p1071
ag4
aS'wear,'
p1072
ag474
ag43
ag116
ag15
ag187
ag15
ag12
aS'use'
p1073
ag101
ag261
ag159
ag212
ag10
ag10
ag19
ag4
ag309
ag162
ag11
ag10
ag105
ag196
ag2
ag15
ag17
ag11
ag40
ag19
ag230
ag278
ag4
ag163
ag46
ag158
ag13
ag119
ag10
ag2
ag94
ag535
ag4
ag137
ag19
ag10
ag12
ag10
ag11
aVcompute
p1074
ag415
ag61
ag42
ag54
ag37
aVexclude
p1075
ag287
ag63
ag61
ag47
ag99
ag33
ag15
ag123
ag61
ag99
ag11
ag11
ag23
ag40
ag116
ag197
ag61
ag35
ag156
ag287
ag100
ag24
ag15
ag99
aS'advertise'
p1076
ag100
ag13
ag88
ag170
ag40
ag41
ag48
ag10
ag10
ag12
ag219
ag84
ag23
aVchew
p1077
ag188
ag59
ag10
ag133
ag13
ag87
ag6
ag6
ag6
ag245
ag8
ag115
ag10
ag10
ag10
aVaddress
p1078
ag156
ag10
ag15
ag57
ag24
ag54
ag10
ag15
ag587
ag319
ag10
ag287
ag23
ag61
ag12
ag134
ag15
ag23
ag49
ag10
ag20
ag20
ag27
ag71
aVcontradict
p1079
ag10
ag97
ag10
ag94
ag28
ag113
ag115
ag41
ag40
ag36
ag10
ag11
ag17
ag13
ag197
ag743
ag100
ag24
ag25
ag10
ag15
ag123
ag29
ag115
ag93
ag193
ag105
ag324
ag10
ag70
ag15
ag87
ag279
ag8
ag64
aS'stress.'
p1080
ag10
ag182
ag105
ag87
ag13
ag12
ag63
ag63
ag11
ag314
ag151
ag70
ag40
ag64
ag23
ag147
ag27
ag10
ag29
ag20
ag25
ag4
ag52
ag33
ag17
ag21
ag11
ag41
ag40
aS'sang'
p1081
ag10
ag9
ag101
ag71
ag135
ag4
ag101
ag133
ag450
ag6
ag180
ag41
ag40
ag70
ag82
ag123
ag10
ag3
ag147
ag194
aS'need.'
p1082
ag12
ag59
ag40
ag8
ag8
ag115
ag61
ag10
ag76
ag4
ag23
ag54
ag46
ag592
ag194
aVreproduce
p1083
ag28
ag61
ag508
ag10
ag49
ag20
ag37
ag15
ag2
ag374
ag59
ag135
ag116
ag33
aS'advertise'
p1084
ag101
ag30
ag10
ag61
ag4
ag61
ag15
ag82
ag41
ag40
ag12
ag61
ag10
ag61
ag47
ag40
ag175
ag163
aVcharacterize
p1085
aS'bring.'
p1086
ag76
ag24
ag69
ag302
ag338
ag11
ag10
ag15
ag61
ag61
ag83
ag8
ag10
ag15
ag27
ag205
ag87
ag13
ag24
ag13
ag41
ag40
ag17
ag4
ag116
ag19
ag10
ag183
ag426
ag10
ag23
ag49
ag61
ag27
ag27
ag10
ag25
ag279
ag42
ag4
ag95
ag11
aS'expected.'
p1087
ag10
ag23
ag76
ag4
aS'paid'
p1088
ag61
ag42
ag12
ag11
ag535
ag54
ag322
ag2
ag161
ag20
ag832
aS'all.'
p1089
ag10
aVbound
p1090
ag49
aVexplore
p1091
aS'houses.'
p1092
ag23
ag82
ag194
ag11
aVtremble
p1093
ag20
ag10
ag19
ag54
ag197
ag13
ag11
ag17
ag11
ag133
ag40
ag287
ag40
ag10
ag245
ag17
ag112
ag12
ag46
ag247
ag40
ag400
ag87
ag61
ag10
ag24
ag13
ag27
ag15
ag17
ag23
ag111
ag112
ag11
ag186
ag41
ag49
ag10
ag10
ag12
ag175
ag163
ag11
ag105
ag1031
ag10
aS'organise'
p1094
ag24
ag108
ag73
ag69
ag71
ag27
ag10
ag25
ag20
ag10
ag114
ag203
ag10
ag94
ag150
ag27
ag95
ag10
ag113
ag23
ag15
ag167
aS'changed.'
p1095
ag70
ag10
ag27
ag10
ag15
ag15
ag4
ag164
ag4
ag2
ag71
ag11
ag134
ag194
ag347
aVeducate
p1096
ag46
ag63
ag223
ag17
ag13
ag138
ag123
ag24
ag101
ag70
ag71
ag58
ag122
ag19
ag4
ag119
ag13
ag6
ag10
ag87
ag91
ag10
ag49
ag10
aS'won.'
p1097
ag163
ag23
ag122
ag15
ag36
ag116
ag27
ag10
ag24
ag100
ag101
ag12
ag36
ag31
ag322
ag146
ag13
ag12
ag219
ag10
ag146
ag42
ag6
ag424
ag59
ag19
aS'concern,'
p1098
ag10
ag99
ag12
ag11
ag10
ag118
ag118
ag156
ag161
ag71
ag94
ag76
ag4
ag15
ag10
ag61
ag13
ag204
ag122
ag23
ag991
ag659
ag10
ag137
ag23
ag7
ag7
ag361
ag10
ag11
ag61
ag713
ag10
ag188
ag10
ag160
ag4
ag115
ag19
ag10
ag134
ag31
ag11
ag49
ag261
ag377
ag277
aVskip
p1099
ag465
ag2
ag17
aS'booked.'
p1100
ag10
aS'cannot'
p1101
ag19
aS'organise'
p1102
ag133
ag144
ag314
ag197
ag10
aS'advertise'
p1103
ag112
ag163
ag96
aS'good.'
p1104
ag118
ag238
ag15
ag4
ag100
ag24
ag17
ag15
ag3
ag4
aS'advertise'
p1105
ag71
ag76
ag15
ag163
ag27
ag133
ag71
ag151
ag219
ag20
ag70
ag130
ag10
ag11
ag15
ag134
ag146
ag425
ag319
ag73
ag11
ag322
ag15
ag134
ag271
ag96
ag10
ag28
ag148
aS'socks....made'
p1106
ag17
ag59
ag10
ag163
ag10
ag417
ag15
ag44
ag15
ag10
ag10
ag15
ag4
ag69
ag99
ag112
ag3
ag4
ag12
ag235
ag76
ag43
ag91
ag230
ag197
ag48
ag15
aVnoise
p1107
ag544
ag230
ag24
ag11
ag10
ag115
ag27
ag10
ag12
ag23
ag94
ag31
ag197
ag10
ag99
ag61
ag11
ag10
aVrecognize
p1108
ag179
ag15
ag13
aVclarify
p1109
ag23
ag47
ag4
ag1025
ag244
ag11
ag13
ag749
ag40
ag41
aS'famous?'
p1110
ag23
ag87
ag27
ag3
ag371
ag8
ag7
ag71
ag20
ag30
ag4
ag3
ag31
ag8
aS'use'
p1111
ag163
ag3
aVscavenge
p1112
ag229
ag212
ag30
ag10
ag204
ag212
ag10
ag40
ag41
aVsaid to
p1113
ag29
ag11
ag2
ag123
aVenquire
p1114
ag4
ag70
ag10
aS'advertise'
p1115
ag33
ag859
ag10
ag119
ag112
ag10
ag11
ag106
ag23
ag24
ag87
ag93
ag34
ag643
ag188
aVstimulate
p1116
ag15
ag134
ag4
ag2
ag11
ag10
ag10
ag305
ag305
ag10
ag15
ag89
ag279
ag13
ag158
ag15
ag33
ag736
ag148
ag44
ag160
ag13
ag15
ag15
ag156
ag37
ag425
ag282
ag15
ag40
ag28
ag71
ag13
ag115
ag15
ag220
ag13
ag15
ag27
ag54
aVwithstand
p1117
ag306
ag338
ag15
ag61
ag20
ag10
ag20
ag19
ag40
ag50
ag11
ag128
ag10
ag134
ag10
ag134
ag105
ag40
ag59
ag163
ag71
ag27
ag51
ag10
ag415
ag10
ag49
ag136
ag127
ag23
ag99
ag538
ag20
ag597
ag2
ag20
ag23
ag15
ag19
aVheel
p1118
ag83
ag4
ag535
ag10
ag100
ag24
ag279
ag11
ag116
ag13
ag6
ag960
ag10
ag40
ag2
ag457
ag105
ag12
ag46
aVcheer
p1119
ag95
ag155
aVdoom
p1120
ag27
ag10
ag179
aVguarantee
p1121
ag328
ag6
ag138
ag615
aS'born'
p1122
ag12
ag52
ag40
ag41
ag61
ag514
ag11
ag10
ag15
ag46
ag29
ag10
ag76
ag10
ag83
ag8
ag242
aVconvey
p1123
ag229
ag116
ag10
ag27
ag484
ag87
ag11
ag61
ag55
ag20
ag20
ag230
ag2
ag83
ag50
ag20
ag37
ag197
ag220
ag37
ag3
ag15
ag54
ag39
ag188
ag226
ag27
ag116
ag10
ag172
ag23
ag13
ag11
ag2
aS'them.'
p1124
ag15
ag27
ag95
ag136
ag15
ag377
ag107
ag12
ag11
ag33
ag188
ag31
ag364
ag115
ag8
ag73
ag229
ag212
ag15
ag10
ag83
ag66
ag63
ag29
ag96
ag119
ag76
ag27
ag10
ag135
ag116
ag10
ag72
ag10
ag19
ag456
ag10
ag107
ag8
ag65
ag115
ag71
ag27
ag10
ag473
ag24
ag20
ag742
ag20
ag87
ag47
ag123
ag19
ag105
ag34
ag146
ag10
aS'organise'
p1125
ag133
ag24
ag170
ag23
ag28
aS'imagine?'
p1126
ag15
ag170
ag15
ag175
ag314
ag41
ag10
ag21
ag271
ag54
ag61
ag116
ag15
ag319
ag20
ag19
ag24
ag76
ag195
ag23
ag8
ag115
ag47
ag6
aVclassify
p1127
ag115
ag63
ag841
ag73
ag172
ag72
ag4
ag134
ag40
ag15
ag188
ag12
ag82
ag46
ag83
ag11
ag54
ag305
ag10
ag147
ag310
ag220
ag6
ag82
ag478
ag220
ag46
ag13
aVis written
p1128
aVpaid back
p1129
ag219
ag13
ag49
ag10
ag10
ag11
ag123
ag380
ag71
ag188
ag47
ag10
ag87
ag27
ag96
ag82
aS'works:'
p1130
ag40
ag15
ag36
ag101
ag82
ag7
ag8
ag139
ag123
ag402
ag10
ag99
ag10
ag83
ag29
ag4
aS'"take'
p1131
ag28
ag474
ag28
ag119
ag20
ag23
aS'need.'
p1132
ag57
ag10
ag76
ag4
ag2
ag54
ag113
ag148
ag61
ag194
ag180
ag72
ag42
ag87
ag42
ag4
ag10
ag230
ag71
ag49
ag4
ag54
ag136
ag37
ag186
ag20
ag41
ag12
ag15
ag61
ag10
ag10
aS'do.'
p1133
ag15
ag61
ag279
ag33
ag73
ag204
ag118
ag76
ag10
ag229
ag245
ag163
ag17
ag82
ag4
ag11
ag9
ag61
ag10
ag10
ag148
ag96
ag27
ag186
ag305
ag146
ag50
ag367
ag11
ag11
ag316
ag15
ag28
aVconceal
p1134
ag15
ag26
ag15
ag10
ag193
ag161
ag40
ag116
aS'famous?'
p1135
ag4
ag6
ag25
ag10
ag243
ag101
ag40
ag10
ag17
ag8
ag123
ag583
ag204
ag57
ag29
ag170
ag13
ag12
ag111
ag148
ag50
ag310
ag2
ag59
ag10
ag133
ag11
ag27
aVpress
p1136
ag10
ag114
ag40
ag163
ag73
ag10
ag41
ag163
ag71
ag24
ag61
ag28
ag148
ag111
ag27
ag161
ag17
ag12
ag158
ag24
ag87
ag61
ag42
ag58
ag10
ag119
ag1059
ag40
ag41
ag61
ag61
ag425
ag10
ag4
ag4
ag4
ag11
ag19
ag11
ag10
ag11
ag71
ag133
ag4
aVwas turn
p1137
ag264
ag396
ag263
ag10
ag17
ag4
ag15
ag10
ag59
ag19
ag358
ag61
ag23
ag101
ag277
ag43
ag91
ag61
ag112
ag44
ag2
ag287
ag65
ag107
ag319
ag23
aVassess
p1138
ag10
ag20
ag133
ag15
ag25
ag133
ag57
ag101
ag229
ag84
ag20
ag76
ag6
ag83
ag24
ag17
ag11
ag133
ag133
ag26
ag319
ag289
aVenclose
p1139
ag4
ag145
ag14
ag229
ag87
ag133
ag1025
ag137
ag179
ag12
ag193
aS'see,'
p1140
ag261
aS'bring?'
p1141
ag133
aVsmile
p1142
ag133
ag64
ag123
ag4
ag12
aS'sang'
p1143
ag10
ag47
ag331
ag316
ag204
ag15
ag112
aS'enclose'
p1144
ag61
ag11
ag11
ag322
ag10
ag162
ag134
ag4
ag110
ag94
ag11
ag54
ag133
ag294
ag4
ag13
ag82
ag147
ag23
ag17
aS'take.'
p1145
ag15
ag12
ag264
ag392
ag630
ag10
ag106
ag4
ag19
ag505
ag10
ag76
ag15
ag41
ag112
ag94
ag508
ag23
ag27
ag23
aVoutweigh
p1146
ag27
ag183
ag27
ag10
ag28
ag4
ag12
ag279
ag76
ag10
ag10
aS'see.'
p1147
ag36
ag120
ag15
ag27
ag17
ag11
ag377
ag138
ag105
ag2
ag12
ag27
aS'expected:'
p1148
ag7
ag71
ag148
ag110
ag10
ag2
ag21
ag40
ag10
ag40
ag59
ag197
ag40
ag380
ag41
ag94
ag11
ag10
ag15
ag101
ag82
ag17
ag2
ag2
ag12
ag100
ag24
ag279
ag17
ag15
ag111
ag58
ag230
ag163
aVbeat
p1149
ag15
ag12
ag61
ag44
ag4
ag47
ag15
ag10
ag82
ag148
ag134
ag110
ag61
ag4
ag19
ag158
aS'use'
p1150
ag280
ag15
ag4
ag61
ag105
ag17
ag13
ag17
ag10
ag10
ag197
ag11
ag229
ag11
ag10
ag890
ag12
aVhad intention
p1151
aVhad not been
p1152
ag20
ag450
ag24
ag76
ag13
ag41
ag163
ag59
ag10
ag133
ag13
ag87
ag10
ag23
ag10
ag59
ag10
ag72
ag15
ag212
ag27
ag11
ag87
ag10
ag133
ag24
ag12
ag15
ag151
ag54
ag10
ag69
ag12
ag10
ag859
ag87
aS'finished,'
p1153
ag19
ag188
ag10
ag17
ag14
ag40
ag41
ag11
ag10
ag238
aVi've
p1154
ag172
ag12
ag24
ag10
ag87
ag115
ag8
ag134
ag134
aS'sang'
p1155
ag11
ag4
ag20
ag78
ag4
ag76
ag411
ag20
ag12
ag163
ag26
ag45
ag41
ag11
ag40
ag54
ag510
ag11
ag10
ag11
ag119
ag91
ag64
ag23
ag11
ag10
ag11
ag118
ag11
ag2
ag78
ag4
ag2
ag15
ag374
aS'arrived,'
p1156
ag2
ag49
ag25
ag10
ag91
ag20
ag87
ag163
ag230
ag11
ag164
ag9
ag54
ag2
ag54
ag163
ag10
ag10
ag45
ag17
ag10
ag170
ag4
ag158
ag19
ag15
ag322
ag49
ag19
ag10
ag17
ag3
ag6
ag6
ag78
ag64
ag6
ag6
ag197
ag11
ag71
ag170
ag46
ag12
ag72
ag41
ag80
ag35
ag47
ag20
ag123
ag314
ag82
ag238
ag150
ag47
ag305
ag513
ag116
ag243
ag194
ag183
ag148
ag15
ag8
ag7
ag28
ag4
ag28
aVsacrifice
p1157
ag2
ag10
ag41
ag279
ag11
ag42
ag146
ag12
ag23
ag40
ag146
ag10
ag137
ag15
ag151
ag204
ag14
ag163
ag15
ag10
ag116
ag17
ag47
ag15
aS're-arranged.'
p1158
ag160
ag193
ag279
ag136
ag24
ag57
ag105
ag15
ag61
ag197
ag40
ag138
aS'take.'
p1159
ag122
ag322
ag83
ag27
ag136
aVwould like
p1160
ag43
ag12
ag37
ag4
ag516
ag194
ag400
aS"it'"
p1161
ag27
ag15
ag10
ag75
ag2
ag31
aS'travel,'
p1162
ag10
ag28
ag15
ag15
ag15
ag119
ag163
ag377
ag150
ag23
ag61
ag116
aVcharge
p1163
ag11
ag10
ag61
ag4
ag188
ag12
ag10
ag233
ag28
ag167
ag271
ag28
ag88
ag27
ag74
ag17
ag40
ag40
ag64
ag64
ag10
ag54
ag87
ag76
ag13
ag10
ag11
ag70
ag110
aS'imagine,'
p1164
ag10
aVdefrost
p1165
ag10
ag28
ag10
ag182
aS'use'
p1166
ag61
ag134
ag8
ag282
ag71
ag137
ag10
ag11
ag244
ag19
ag244
ag2
ag23
ag163
ag96
ag122
ag15
ag4
ag134
ag4
ag220
ag17
ag19
ag4
ag76
ag30
ag23
ag49
ag40
ag391
ag61
ag46
ag20
ag134
ag88
ag58
ag87
ag23
ag112
ag10
ag212
ag9
ag123
ag133
ag242
aS'see,'
p1167
ag54
ag144
aS'included.'
p1168
ag113
ag586
ag43
ag194
aVdistract
p1169
ag4
ag11
aS'swimming.'
p1170
ag134
ag148
ag27
ag10
ag859
ag12
ag28
ag123
ag19
ag10
ag101
ag4
ag17
ag58
ag590
ag23
ag2
ag10
ag28
ag82
ag151
ag10
ag15
ag161
ag101
ag71
ag15
ag19
ag3
ag27
ag186
ag4
ag17
ag10
ag4
ag58
ag36
ag277
aS'organise'
p1171
ag41
ag61
ag13
aVdivorce
p1172
ag6
ag2
ag19
ag2
ag329
ag106
ag19
ag63
ag590
ag52
ag995
ag95
ag10
ag11
ag10
ag4
ag10
ag105
ag400
ag91
ag87
ag154
ag148
ag134
ag23
ag113
ag115
ag42
aVpop
p1173
aS'hand-write'
p1174
ag3
ag10
ag19
ag10
ag73
ag10
ag336
ag24
ag25
ag82
ag116
ag96
ag615
ag10
ag17
ag4
ag15
ag10
ag100
ag155
ag4
ag11
ag4
ag197
ag233
ag17
ag66
ag197
ag108
ag47
ag16
ag71
ag133
ag81
ag4
ag3
ag10
ag148
ag72
ag10
ag12
ag186
ag10
ag12
ag11
ag112
ag54
ag84
ag527
ag43
ag194
ag23
ag28
ag27
aS'happen.'
p1175
ag135
ag42
ag4
ag170
ag15
ag115
ag8
ag17
ag10
ag15
ag4
ag61
ag349
ag109
ag114
ag25
ag33
ag123
ag70
ag116
ag10
ag12
ag2
ag2
ag28
ag42
ag179
ag12
ag37
ag122
ag10
ag271
ag116
ag2
ag12
ag4
ag12
ag100
ag24
ag170
ag41
ag40
ag54
ag50
ag26
ag15
ag208
ag112
ag4
ag186
ag8
ag584
ag27
ag27
ag115
ag69
ag40
ag27
ag87
ag105
ag42
ag40
ag41
ag27
aVexcuse
p1176
ag28
ag46
ag9
ag27
ag99
aVeffect
p1177
ag27
ag1177
ag10
ag27
ag119
ag146
ag13
ag15
ag258
ag190
ag40
ag111
ag35
ag898
ag28
ag4
ag112
ag115
ag4
ag27
ag133
ag338
ag49
ag2
ag423
ag33
ag15
ag111
ag40
ag135
ag294
ag28
ag10
ag46
ag10
ag72
ag55
ag112
ag10
ag123
ag508
ag15
ag36
ag10
ag119
ag120
aVconduct
p1178
ag294
ag13
ag12
ag61
ag10
ag10
ag28
ag4
ag17
ag10
ag28
ag83
ag15
ag71
ag28
aS'organise'
p1179
ag76
ag11
ag194
ag10
ag13
ag118
ag95
ag11
ag436
ag233
ag19
ag17
ag40
ag76
ag10
ag4
ag13
ag3
ag28
aVutilize
p1180
ag192
ag115
ag47
ag84
ag27
ag46
ag47
ag110
ag134
ag20
ag46
ag3
ag10
aS'holidays.'
p1181
ag73
ag99
ag37
ag123
ag40
ag59
ag278
ag4
ag74
ag11
ag27
ag23
ag99
ag2
ag4
ag76
ag76
ag4
ag302
ag361
ag33
ag116
ag11
ag10
ag24
ag105
ag12
aS'do.'
p1182
ag61
ag13
ag40
ag41
ag163
ag28
ag2
ag10
ag19
ag10
ag11
ag28
ag73
ag12
ag10
ag12
ag10
ag144
ag833
ag46
ag161
ag163
ag10
ag10
ag6
ag160
ag73
ag82
ag36
ag8
ag27
ag20
ag244
ag172
ag220
ag4
ag27
ag71
ag70
ag726
ag123
ag579
ag99
ag73
ag100
ag24
ag101
ag417
ag134
ag17
ag2
ag63
ag63
ag115
ag701
ag23
ag115
ag135
ag223
ag115
aVtaken in
p1183
ag23
ag134
ag11
ag188
aVrend
p1184
ag80
ag33
ag101
ag19
ag17
ag230
ag27
ag188
ag10
ag116
ag10
ag175
ag25
ag83
ag15
ag134
ag361
ag148
ag3
ag72
ag15
ag101
ag14
ag900
ag960
ag10
ag134
ag4
ag76
ag76
ag99
ag64
ag29
ag76
ag19
ag4
ag10
ag119
ag27
aVconclude
p1185
ag23
ag2
ag4
ag298
ag144
ag49
ag17
ag83
ag10
ag188
ag10
ag15
ag132
ag172
ag21
ag10
ag2
ag20
ag314
ag233
ag29
ag13
ag11
ag139
ag367
ag61
ag146
ag138
aS'paid'
p1186
ag25
ag231
ag82
ag33
ag11
ag307
ag134
ag12
ag614
ag112
ag84
aS'organise'
p1187
ag15
ag302
ag8
ag60
ag12
ag11
ag73
ag99
ag484
ag12
ag46
ag110
ag46
ag230
ag113
ag40
ag19
aVquestion
p1188
ag10
ag24
ag27
ag61
ag46
ag144
ag597
ag101
ag106
ag40
ag41
ag9
ag48
ag91
ag64
ag10
ag76
ag19
ag164
ag11
ag10
ag2
ag116
ag13
ag382
ag11
ag11
ag3
ag4
ag3
ag15
ag579
ag4
ag25
ag10
ag119
ag40
ag15
ag11
ag106
ag180
ag27
ag10
ag28
ag87
ag13
ag10
ag15
ag11
ag70
ag10
ag425
ag106
ag57
ag4
ag10
ag15
ag41
ag10
ag209
ag84
ag4
aS'rang'
p1189
ag13
ag11
ag23
ag10
ag4
ag10
ag11
ag271
ag17
ag118
ag348
ag567
ag12
ag15
ag872
ag133
ag317
aVhunt
p1190
ag75
ag10
ag11
ag11
ag87
ag15
ag76
aS'we?'
p1191
ag41
ag40
ag20
ag78
ag19
ag99
ag87
ag17
ag54
ag27
ag114
ag10
ag76
ag4
ag133
ag41
ag40
ag19
ag77
ag10
ag4
ag15
ag226
ag12
aVtitle
p1192
ag40
ag9
ag23
ag10
ag19
ag11
ag20
ag4
ag15
ag17
ag11
ag217
aVcut
p1193
ag134
ag187
ag71
ag411
ag193
ag79
ag11
ag491
ag338
ag101
ag11
ag10
ag10
ag27
ag47
ag332
ag61
ag275
ag108
ag10
ag11
ag135
ag11
ag4
ag87
ag10
ag188
ag11
ag4
ag11
ag47
ag4
ag111
ag11
ag71
ag76
ag23
ag220
ag76
ag4
ag23
ag44
ag20
ag374
ag10
ag10
ag101
ag105
ag4
ag10
ag23
ag114
ag10
ag230
aS"it'"
p1194
ag10
ag12
ag10
aVpossess
p1195
ag9
ag2
ag87
ag10
ag17
ag10
ag43
ag4
ag8
ag217
ag134
aS',,shop'
p1196
ag76
ag27
ag11
ag4
ag115
ag118
ag84
ag105
ag15
ag741
ag41
ag10
ag11
ag425
ag46
ag10
ag11
ag61
ag197
ag10
ag172
ag135
ag10
ag23
ag23
ag10
ag10
ag587
ag15
aS'realise'
p1197
ag10
ag132
ag12
ag11
ag12
ag279
ag1193
ag211
ag148
ag192
ag147
ag116
ag164
ag61
ag99
ag19
ag76
ag10
ag328
ag114
ag61
ag230
ag279
aS'born'
p1198
ag10
ag70
ag10
ag4
ag134
ag20
ag134
ag336
ag123
ag380
ag15
ag61
ag10
ag61
ag19
ag10
ag88
ag13
ag11
ag347
ag54
ag95
ag113
aVassist to
p1199
ag11
ag27
ag15
ag123
ag106
ag27
ag10
aValter
p1200
ag10
ag13
aS'shattered.'
p1201
ag54
ag4
ag27
ag24
ag133
ag30
ag112
ag175
ag28
ag54
ag15
ag24
ag59
ag87
aS'not.'
p1202
ag13
ag10
ag1062
ag24
ag100
ag10
ag15
ag87
ag24
ag23
ag10
ag336
ag2
ag28
ag116
ag99
ag11
ag11
ag621
ag40
ag228
ag83
ag12
ag146
ag10
aS'organise'
p1203
ag146
ag42
ag10
ag12
ag32
ag9
ag12
aS'bad.'
p1204
ag119
ag338
ag17
ag10
ag20
ag33
ag46
ag172
ag10
ag207
ag20
ag10
ag27
ag11
ag10
ag15
ag4
ag13
ag70
ag12
ag2
ag8
ag10
ag17
ag9
ag71
ag10
ag194
ag108
ag24
ag25
ag163
ag4
ag58
ag105
ag81
ag11
ag13
ag27
ag61
ag885
ag202
ag11
ag400
ag47
ag10
ag15
ag91
ag40
ag12
ag161
ag49
ag10
aS'said:'
p1205
ag61
ag41
ag40
ag27
ag70
ag37
ag219
aS'built.'
p1206
ag120
ag134
ag4
ag91
ag144
ag118
ag6
ag170
ag8
ag4
ag10
ag10
ag10
ag11
ag4
ag11
ag217
ag15
ag30
ag69
ag105
ag61
ag203
ag135
ag10
ag42
ag146
aVtransport
p1207
aS'drag'
p1208
ag91
ag122
ag10
ag61
ag23
ag11
ag27
ag15
ag15
ag61
ag347
ag11
ag133
ag118
ag170
ag13
ag11
ag897
ag279
ag10
ag15
ag23
ag116
ag23
ag47
ag15
ag10
ag10
ag12
ag94
ag316
ag76
ag197
ag96
ag2
ag40
ag41
ag54
ag11
ag64
aS'thought!'
p1209
ag10
ag10
ag47
ag99
ag41
ag163
ag84
ag41
ag40
ag15
ag10
ag10
ag23
ag4
ag12
ag123
ag10
ag25
ag8
ag88
ag2
ag116
ag69
ag10
ag10
ag10
ag10
ag61
ag71
ag99
ag15
ag26
aS"it'"
p1210
ag61
ag233
ag54
ag10
ag15
ag77
ag4
ag28
ag10
ag271
ag10
ag82
aS'wear.'
p1211
ag99
ag95
ag10
ag15
ag6
ag10
ag123
ag324
ag13
ag116
ag17
ag10
ag23
ag15
ag604
ag11
ag10
ag4
ag23
ag76
ag87
ag96
ag493
ag10
ag374
ag10
ag65
ag24
ag140
ag10
ag91
ag10
ag10
ag292
ag73
ag12
ag11
ag31
ag349
ag112
aVseek
p1212
ag4
ag332
aS'use'
p1213
ag46
ag151
ag91
ag172
aS'swimming.'
p1214
ag137
ag11
ag4
ag220
ag14
ag136
ag112
ag40
ag41
ag4
ag11
ag199
ag10
ag11
ag10
ag151
ag95
ag4
ag59
ag10
ag19
ag12
ag11
ag33
ag187
ag2
ag107
ag15
ag82
ag179
aS'sang'
p1215
ag63
ag33
ag23
ag44
ag220
ag164
ag95
ag13
aS'do,'
p1216
ag10
ag347
ag47
ag47
ag148
ag134
ag10
ag15
ag14
ag10
ag94
ag6
ag96
ag46
aVcontribute
p1217
ag101
ag82
ag108
ag71
ag277
ag61
ag11
ag377
ag28
ag283
ag73
ag61
aS'realise'
p1218
ag19
ag105
ag3
ag4
ag57
ag24
ag262
ag10
ag535
ag20
ag188
aS'"visit'
p1219
ag70
ag115
ag17
ag30
ag262
ag148
ag119
ag11
ag54
ag15
ag15
ag27
ag164
ag23
ag2
ag23
ag10
ag155
ag13
ag12
ag11
ag118
ag28
ag116
ag24
ag316
ag20
ag4
ag15
aS'sang'
p1220
ag11
ag309
ag19
ag163
ag87
ag28
ag721
ag10
ag10
ag10
ag10
ag10
ag310
ag40
ag3
ag4
ag164
ag10
ag212
ag84
ag177
ag10
ag9
ag15
ag105
ag71
ag2
ag11
ag119
ag20
ag10
ag20
ag320
ag40
ag40
aS'there.'
p1221
ag70
ag2
ag123
ag15
ag279
ag316
aVdoubt
p1222
ag15
ag105
ag33
ag74
ag10
ag426
aS'disturbed.'
p1223
ag309
ag4
ag75
ag19
ag160
ag27
ag10
ag87
ag197
ag61
ag40
ag41
ag10
ag20
ag15
ag87
ag245
ag163
ag27
ag10
ag10
ag73
ag99
ag70
ag23
ag289
ag110
ag15
ag13
ag46
ag15
ag27
ag187
ag10
ag11
ag187
ag27
ag15
aS'fine.'
p1224
ag83
aS'apologise'
p1225
ag99
ag11
ag27
ag35
ag135
ag118
ag2
ag11
ag115
ag110
ag46
ag333
ag10
ag10
ag1031
ag46
ag10
ag70
ag10
ag212
ag10
ag70
aS'reorganise'
p1226
ag112
ag27
ag28
ag118
ag335
ag20
ag104
ag203
ag26
ag24
ag20
ag133
ag123
ag15
ag49
ag4
ag12
ag54
ag661
ag91
ag134
ag144
ag4
ag12
ag8
ag111
ag233
ag72
ag59
ag101
ag279
ag24
ag34
ag163
ag41
ag10
ag10
ag50
ag25
ag146
ag10
ag15
ag71
ag10
ag73
ag122
ag106
ag20
ag10
ag10
ag41
ag40
ag133
ag28
ag52
ag188
ag15
ag212
ag4
ag12
ag10
ag15
ag579
ag170
ag52
ag212
ag47
ag10
ag10
ag17
ag76
ag13
ag101
ag40
aS'represented.'
p1227
ag78
ag11
ag74
ag10
ag87
ag10
ag10
ag119
ag47
ag197
ag116
ag201
ag413
ag87
ag29
ag72
ag4
ag82
aS'use'
p1228
ag245
ag425
ag61
ag46
ag101
ag83
ag61
ag76
ag197
ag148
ag15
ag135
ag170
ag158
ag101
ag23
ag10
ag30
ag100
ag82
ag10
aS'recognise'
p1229
ag204
ag40
ag10
ag84
ag41
ag11
ag181
ag61
ag84
ag59
ag245
ag161
ag15
ag33
ag31
ag10
ag70
ag49
ag484
ag76
ag4
ag100
ag24
ag95
ag46
ag3
ag10
ag76
ag175
ag17
ag322
ag65
ag20
ag371
ag11
ag71
ag265
ag99
ag11
ag95
ag95
ag4
ag10
ag76
ag230
ag163
ag116
ag164
ag19
ag10
ag23
ag4
ag82
ag10
ag84
ag11
ag10
ag309
ag19
ag10
ag11
ag10
ag135
ag120
ag12
ag271
ag11
ag10
ag94
ag146
ag12
ag4
ag99
ag136
ag859
ag108
ag53
ag11
ag10
ag46
ag76
ag4
ag182
ag61
ag310
ag257
ag4
ag15
ag10
ag17
ag27
ag170
ag13
ag162
ag320
ag40
ag101
ag115
ag463
ag83
ag402
ag83
ag99
ag108
ag20
ag11
ag10
ag15
ag27
ag11
ag111
ag942
ag46
ag180
ag277
ag42
ag28
ag322
ag40
ag37
ag10
ag11
ag13
ag116
ag10
ag172
ag10
ag111
ag8
aS'buy.'
p1230
ag27
ag4
ag133
ag87
ag76
ag164
ag101
ag10
ag87
ag163
aVset out
p1231
ag10
ag41
ag163
ag71
ag199
ag54
ag23
ag54
ag11
ag46
ag333
ag28
ag10
ag11
ag99
ag134
ag10
ag46
ag10
ag61
ag11
ag10
ag64
ag61
ag61
ag11
ag73
ag366
ag13
ag1010
ag12
ag10
ag27
ag10
ag83
ag4
ag20
ag105
ag71
ag15
ag17
ag133
ag24
ag250
ag2
ag10
ag15
ag4
ag15
ag12
ag95
ag9
ag12
ag12
aS'say,'
p1232
ag23
ag15
ag76
ag4
ag170
ag119
ag123
aVworking out
p1233
ag983
ag76
ag24
ag319
ag82
ag72
ag133
ag15
ag47
ag20
ag59
ag146
ag88
ag74
ag10
ag75
ag55
ag592
ag27
ag7
ag4
ag10
ag10
ag956
ag163
ag15
ag474
ag219
ag197
aS'organise'
p1234
aS'use'
p1235
ag2
ag218
ag101
ag470
ag54
aS'bring.'
p1236
ag11
ag10
aVdeclare
p1237
ag1025
ag108
ag57
ag4
ag10
ag94
ag23
aVchop
p1238
ag114
ag140
ag120
ag10
ag578
ag88
ag535
ag118
ag17
ag40
ag4
ag134
ag11
ag23
ag13
ag186
ag101
aS'organise'
p1239
ag133
ag4
ag9
ag583
ag134
ag137
ag27
ag10
aS'fun.'
p1240
ag46
ag10
ag110
ag69
ag37
ag456
ag11
ag10
ag83
ag4
ag133
ag10
aS'organise'
p1241
ag23
ag10
ag160
ag14
ag136
ag211
ag188
ag58
ag4
ag256
ag195
ag10
ag188
ag15
ag61
ag188
ag12
ag163
ag11
ag136
ag163
ag11
ag10
ag258
ag58
ag23
ag173
aVdefeat
p1242
ag10
ag230
ag884
ag15
ag76
ag661
ag2
ag10
ag88
ag15
ag10
ag64
ag14
ag14
ag146
ag245
ag10
aS'children.'
p1243
ag11
ag15
ag20
ag11
aVpostpone
p1244
ag10
aS'realise'
p1245
ag135
ag123
ag71
ag219
ag70
ag10
ag83
ag159
ag112
ag159
ag6
ag19
ag40
ag10
ag2
ag15
aS'do.'
p1246
ag105
ag828
ag11
ag13
ag15
ag71
ag27
ag33
ag204
ag61
ag17
ag11
aS'use'
p1247
ag324
ag28
ag1019
ag82
ag78
ag133
ag193
ag11
ag19
ag106
ag134
ag13
ag134
aS'got,'
p1248
ag25
ag10
ag31
ag4
ag15
ag15
ag54
ag13
ag277
ag151
ag4
ag760
ag23
ag36
ag20
ag41
ag17
ag15
ag4
ag59
ag10
ag96
ag279
ag28
ag105
ag314
ag20
ag161
ag78
ag71
ag25
ag61
ag101
ag73
ag206
ag10
ag736
ag15
ag10
ag17
ag10
ag137
ag82
ag447
ag82
ag27
ag28
ag988
ag47
ag10
ag15
ag11
ag116
ag10
ag200
ag54
ag61
ag8
ag94
ag65
ag57
ag859
ag10
ag668
ag411
ag11
ag10
ag46
ag64
ag265
ag10
ag72
ag49
ag15
ag186
ag11
ag2
ag24
ag186
ag71
ag161
ag27
ag10
ag71
ag69
ag25
ag47
ag425
ag21
ag11
ag19
ag19
ag7
ag17
ag10
ag87
ag49
ag10
ag2
ag2
ag115
ag95
ag4
ag44
ag134
aVdivide
p1249
ag238
ag268
ag10
ag160
ag11
ag13
aVprohibit
p1250
ag19
ag58
ag15
ag960
ag27
ag31
ag3
ag20
ag42
ag12
ag25
ag70
ag258
ag15
ag17
ag182
ag43
ag4
ag3
ag11
ag10
ag20
ag12
ag31
ag10
ag11
ag133
ag10
ag64
ag54
ag3
ag283
ag75
ag28
ag10
ag10
ag4
ag473
ag13
ag76
ag10
ag69
ag71
ag10
ag11
ag15
ag54
ag15
ag95
ag55
ag11
ag87
ag247
ag332
ag36
aS'advertise'
p1251
ag508
ag11
ag118
aS'decide.'
p1252
ag23
ag15
ag4
ag11
ag151
ag585
ag156
ag49
ag133
ag11
ag12
ag332
ag2
ag137
ag61
ag12
ag22
ag194
ag115
ag106
ag10
ag61
ag99
ag282
ag22
ag41
ag163
ag483
ag11
aS'move,'
p1253
ag338
ag406
ag10
ag82
ag31
ag10
ag84
ag20
ag9
ag180
ag87
ag450
ag15
ag49
ag6
ag52
ag663
ag106
ag46
ag6
ag27
ag40
ag3
ag27
ag10
ag10
ag116
ag243
aS'am,'
p1254
ag24
ag10
ag40
ag41
ag41
aS'chosen.'
p1255
ag13
aVoccupy
p1256
ag23
ag24
ag100
ag10
ag133
ag100
ag24
ag287
ag11
aS'(open'
p1257
ag197
ag76
ag4
ag83
ag10
ag95
ag322
ag10
ag74
ag73
ag10
ag40
ag41
ag199
ag123
ag890
ag14
ag2
ag15
ag99
ag222
ag425
ag123
ag10
ag268
ag3
aS'sang'
p1258
ag10
ag1149
ag7
aS'need.'
p1259
ag43
ag4
ag194
ag40
ag10
ag37
ag23
ag27
ag380
aVdefine
p1260
ag8
ag40
ag41
ag28
ag12
ag115
ag11
ag1114
ag24
ag15
ag373
ag71
ag47
ag136
ag71
ag10
ag77
ag219
ag63
ag99
ag13
ag96
ag11
aS'use'
p1261
ag197
ag17
ag151
ag75
ag10
ag74
ag27
ag46
ag23
ag11
aS'paid'
p1262
ag736
ag24
ag10
ag179
ag137
ag415
ag146
ag2
ag84
ag4
ag321
ag11
ag380
ag61
ag10
ag119
ag23
ag27
ag1028
ag374
ag376
ag10
ag25
ag96
ag13
ag46
ag27
ag73
ag4
ag2
ag23
ag436
aS'take.'
p1263
aS'you,'
p1264
ag42
ag43
ag186
ag162
ag10
ag87
ag9
ag11
ag457
ag188
ag13
ag115
ag11
ag15
ag3
ag87
ag28
ag108
ag58
ag10
ag148
ag8
ag19
ag10
ag194
ag172
ag13
ag10
ag3
aVcrowd
p1265
ag119
ag11
ag27
ag10
ag72
ag72
ag4
ag133
ag396
ag11
ag262
aVsould be
p1266
ag262
ag20
ag4
ag20
ag28
ag23
ag332
ag123
ag133
ag87
ag374
ag10
ag52
ag134
ag135
ag17
ag76
ag11
ag4
ag42
ag46
ag10
ag133
ag151
aVsightsee
p1267
ag11
ag27
ag219
ag197
ag197
ag10
ag1013
aVpostponed to
p1268
ag34
ag73
ag99
ag10
ag10
ag23
ag6
ag40
ag41
ag584
ag11
ag10
ag25
ag99
ag70
ag63
ag11
ag38
ag15
ag477
ag328
ag115
ag10
ag15
ag83
ag17
ag76
ag83
ag11
ag460
aS'substituted.'
p1269
ag885
ag27
ag204
ag155
ag28
ag27
ag94
ag749
ag192
ag19
ag61
ag12
ag4
ag168
ag168
ag400
ag27
ag61
ag15
ag74
ag71
ag4
ag11
ag10
ag37
ag108
ag4
ag41
ag40
ag76
ag4
ag87
ag10
ag61
ag116
aS'organise'
p1270
ag10
ag24
ag15
ag24
ag76
ag23
ag15
ag23
ag10
ag12
ag11
ag23
ag137
ag4
ag71
ag27
ag15
ag17
ag10
ag15
ag314
ag184
ag61
ag105
ag271
ag27
ag23
ag4
ag484
ag83
ag2
ag12
ag23
ag40
ag40
ag10
ag10
ag549
ag11
ag71
ag46
ag11
ag163
ag20
ag10
ag37
ag20
ag49
ag4
ag45
ag11
ag12
ag4
aS'paid'
p1271
ag10
aVfeed
p1272
ag116
ag10
ag10
ag27
ag2
ag76
ag4
ag23
ag10
ag28
ag123
ag15
ag63
ag15
ag12
ag99
ag73
ag161
ag173
ag61
ag11
ag13
ag84
ag12
ag99
ag10
ag211
ag144
ag24
ag59
ag61
aVgain
p1273
ag63
ag347
ag87
ag99
ag4
ag12
ag6
ag243
ag324
ag2
ag13
ag41
ag127
ag151
ag108
ag54
ag133
ag4
ag163
ag49
ag194
ag30
ag27
ag54
ag447
ag94
ag100
ag10
ag17
ag4
ag3
ag309
ag112
ag2
ag947
ag112
ag136
ag30
ag25
aS"it'"
p1274
ag4
ag28
ag274
ag10
ag17
ag73
ag22
ag11
ag10
ag12
ag40
aS'recieve'
p1275
ag11
ag11
aVexperiment
p1276
ag122
ag302
ag19
ag661
ag40
ag43
ag94
ag11
ag2
ag28
ag10
ag67
ag147
ag96
ag73
ag73
ag99
ag120
ag11
ag165
ag61
ag120
ag15
ag105
aS'enjoyable!'
p1277
ag15
aVconfuse
p1278
ag41
ag40
ag87
ag15
ag23
ag27
ag17
ag27
ag194
ag42
ag146
ag45
ag10
ag11
ag11
ag61
ag204
ag328
ag123
ag12
ag20
ag87
ag87
ag74
ag10
ag112
ag72
ag19
ag73
ag99
ag8
ag15
ag15
ag15
ag2
ag76
ag83
ag10
ag96
ag411
ag163
ag15
ag9
ag120
ag27
ag148
ag12
ag53
ag49
ag10
ag17
ag175
ag10
ag115
ag186
ag8
ag27
ag15
ag170
ag4
ag41
ag123
ag101
ag15
ag13
ag133
ag4
ag4
ag11
ag172
ag10
ag47
ag6
ag10
ag15
ag82
ag163
ag13
ag83
ag187
ag11
ag328
ag96
ag48
ag151
ag88
ag84
ag36
ag347
ag40
ag41
ag10
ag41
ag91
ag10
aS'use'
p1279
ag730
ag69
ag11
ag19
ag11
ag108
ag457
ag10
ag8
ag27
ag28
ag25
ag116
ag133
ag73
ag99
ag739
ag88
ag170
ag194
ag41
ag40
ag11
ag4
ag401
ag10
ag4
ag76
ag197
ag37
ag15
ag112
ag116
ag10
ag184
ag50
ag59
ag473
ag10
ag72
ag59
ag10
ag61
ag146
ag6
ag265
ag15
ag61
ag11
ag118
ag118
ag40
ag83
ag49
ag115
ag40
ag535
ag115
ag4
ag115
ag10
ag238
ag47
ag49
ag87
ag114
ag23
ag23
ag82
ag27
ag15
ag199
ag20
ag24
ag133
ag278
ag322
ag10
ag247
ag61
ag170
ag134
ag115
ag61
ag182
ag73
ag99
ag61
ag87
ag43
ag40
ag41
ag133
ag349
ag21
aVlighten
p1280
ag19
ag10
ag40
ag134
ag99
ag15
ag19
ag20
aVhas not got
p1281
ag139
ag10
ag134
ag11
ag46
ag10
ag113
ag115
ag988
ag8
aS'go,'
p1282
ag47
aS'perform.'
p1283
aS'buy,'
p1284
aS'said,'
p1285
ag2
ag195
ag411
ag17
ag24
ag10
ag180
ag95
ag28
ag47
ag30
ag4
ag12
ag10
ag64
ag87
ag10
ag10
ag11
ag76
ag4
ag134
aS'choose,'
p1286
ag4
ag134
ag10
ag40
ag41
ag310
ag148
ag134
ag27
ag13
ag470
ag37
ag19
aS'dance.'
p1287
ag71
ag29
ag27
ag87
ag137
ag15
ag19
ag116
ag136
ag134
ag583
ag133
ag147
ag204
ag10
ag163
ag10
ag29
ag15
ag49
ag27
ag484
ag116
ag27
ag40
ag41
ag17
ag217
ag10
ag20
ag574
ag24
ag336
ag10
ag194
ag88
ag65
ag164
ag188
ag25
ag20
ag11
ag243
ag10
ag71
ag73
ag2
ag72
ag148
ag100
ag13
ag11
ag11
ag514
ag176
ag63
ag100
ag238
ag207
ag10
ag105
ag277
ag425
ag23
ag188
ag11
ag10
ag17
ag46
ag151
ag15
ag41
ag40
ag133
ag4
ag164
ag23
ag10
ag23
ag279
aS'use'
p1288
ag23
ag10
ag54
ag147
ag10
ag118
ag61
ag46
ag10
aS'use'
p1289
ag27
ag151
ag2
ag20
ag55
ag17
ag10
ag61
ag113
ag134
ag96
ag23
ag54
ag287
ag105
ag76
ag11
ag54
ag11
ag39
ag54
ag11
ag84
ag10
ag41
ag70
ag42
ag54
ag321
ag292
aS'paid'
p1290
aS'know,'
p1291
ag74
ag10
ag27
ag26
ag119
ag11
ag134
ag105
ag233
ag49
ag106
ag111
ag82
aVpark
p1292
ag2
ag10
ag271
ag197
ag170
ag64
ag54
ag147
ag71
ag11
ag99
ag338
ag17
ag15
ag10
ag10
ag123
ag17
ag3
ag47
ag73
ag230
ag11
ag11
ag72
ag249
ag119
ag335
ag10
ag41
ag82
ag468
aS'organise'
p1293
ag133
ag59
ag40
ag505
ag1123
ag99
ag73
ag30
ag197
ag10
ag61
ag40
ag41
ag186
ag84
ag61
ag4
ag61
ag4
ag61
ag41
ag163
ag17
ag40
ag20
ag146
ag83
ag66
ag116
ag11
ag47
ag87
ag296
ag27
ag23
ag118
ag28
ag12
aS'advertise'
p1294
ag11
ag415
ag4
ag119
ag76
ag24
ag15
ag10
ag218
ag76
ag19
aVhaunt
p1295
ag23
ag10
ag77
ag10
ag425
ag28
ag17
ag99
ag310
ag41
ag163
ag10
ag23
ag156
ag17
ag197
aVhead
p1296
ag222
ag40
ag10
ag156
ag4
ag11
ag10
ag15
ag139
ag197
ag47
ag2
ag48
ag11
ag136
ag49
ag122
ag10
ag11
ag119
ag10
ag96
ag11
ag15
ag84
ag10
ag45
ag12
ag133
ag163
ag10
ag118
ag99
ag28
ag310
ag20
ag46
ag28
ag310
ag147
ag10
ag23
ag133
ag11
ag10
ag4
ag186
ag115
aVadapt
p1297
ag116
ag122
ag25
ag101
ag383
ag172
ag41
ag40
ag10
ag10
aS'given;'
p1298
ag76
ag272
ag28
ag118
ag27
ag64
ag139
ag19
ag4
ag76
ag12
ag88
ag27
ag11
aS'manage.'
p1299
ag11
ag306
ag4
ag12
ag663
ag95
ag23
ag59
ag40
ag151
ag10
ag15
ag148
ag23
ag10
ag115
ag187
ag10
ag106
ag105
aS'given.'
p1300
ag15
ag20
ag1149
ag41
ag4
ag108
aS'advertise'
p1301
ag20
ag40
ag41
ag31
ag20
ag63
ag119
ag15
aS'change.'
p1302
ag28
aS'happened.'
p1303
ag27
ag206
ag10
ag10
aVnotify
p1304
ag10
ag122
ag59
ag243
ag279
ag359
ag23
ag82
ag870
ag28
ag10
ag11
ag15
ag11
ag1127
ag23
ag160
ag11
ag180
ag160
ag10
ag40
ag71
ag11
ag219
ag15
ag93
ag14
ag47
ag27
ag71
ag13
ag116
ag17
ag27
ag233
ag27
ag10
ag54
ag11
ag957
ag106
ag305
ag41
ag163
ag71
ag9
ag15
ag73
ag2
ag310
ag12
ag4
ag23
ag2
ag3
ag133
ag4
ag15
ag10
ag17
ag119
ag46
ag713
ag28
ag19
ag188
ag119
ag28
ag82
ag4
ag71
ag10
ag136
ag874
ag27
ag10
ag11
ag10
ag10
ag2
ag6
ag10
ag27
ag371
ag15
ag19
ag10
ag10
ag12
ag10
ag61
ag151
ag46
ag71
ag173
ag123
ag148
ag36
ag148
ag336
ag338
ag908
ag96
ag197
ag19
ag10
ag9
ag20
ag106
ag314
ag163
ag13
ag15
aVgrab
p1305
ag30
ag2
ag133
ag314
ag12
ag15
ag41
ag10
ag76
aS'expected.'
p1306
ag10
ag59
ag40
ag87
ag15
aVland
p1307
ag391
ag730
ag83
ag11
ag13
ag2
ag72
ag70
ag1074
ag91
ag87
ag574
ag331
ag261
ag28
ag42
ag54
ag43
ag146
ag27
ag10
ag83
ag73
ag123
ag13
ag123
aS'published.'
p1308
ag704
ag27
ag64
ag2
ag170
aS'bring,'
p1309
ag19
ag204
ag118
ag279
ag46
ag87
ag10
ag76
ag119
ag10
ag2
ag133
ag87
ag24
ag10
ag49
ag15
ag17
ag220
ag10
ag257
ag10
ag46
ag12
aS'paid'
p1310
ag147
ag45
ag202
ag10
ag614
ag458
ag15
ag17
ag50
ag24
ag10
ag10
ag46
ag114
ag27
ag161
ag76
ag11
ag321
ag15
ag59
ag44
ag24
ag65
ag10
ag160
ag160
aS'get.'
p1311
ag13
ag10
ag2
ag82
ag36
ag136
ag744
ag7
ag188
ag11
ag10
aS'promised.'
p1312
ag10
ag99
aVfind out
p1313
aVrealise it
p1314
ag4
ag10
ag137
ag95
ag27
ag11
ag137
ag61
ag309
ag13
ag11
ag140
ag40
ag116
ag148
ag2
ag120
ag2
ag36
aVmake come
p1315
ag87
ag14
ag183
ag10
ag27
aS'required?'
p1316
ag43
ag17
ag10
ag40
ag41
aS'remain,'
p1317
ag23
ag10
ag99
ag73
ag11
ag11
ag54
ag305
ag10
ag27
ag10
ag133
ag59
ag133
ag57
ag10
ag72
ag43
ag147
ag194
ag643
ag28
ag28
ag28
ag1010
ag61
ag116
ag15
ag24
ag105
ag78
ag228
ag23
ag20
ag8
ag3
ag13
ag12
ag43
ag11
ag217
ag10
ag10
aS'excercise'
p1318
aS'start.'
p1319
ag12
ag54
aS'focuse'
p1320
ag194
ag28
ag4
ag25
ag10
aS'use'
p1321
ag119
ag119
ag119
aVturned up
p1322
ag11
ag9
ag164
ag58
ag63
ag27
ag45
ag179
ag49
ag41
ag115
aVtransmit
p1323
ag508
ag54
ag4
ag17
ag10
ag71
aVexpand
p1324
ag54
ag41
ag40
ag262
ag82
ag12
ag46
ag71
ag8
ag61
ag30
ag170
ag146
ag87
ag65
ag10
ag13
ag309
ag511
ag40
ag41
ag133
ag71
ag163
ag138
ag136
ag76
ag463
ag26
ag436
ag23
ag858
ag858
ag74
ag2
ag54
ag277
ag118
ag61
ag180
ag15
ag42
ag4
ag115
ag27
ag186
ag4
ag21
ag99
ag11
ag14
ag10
ag133
ag4
ag170
ag10
ag40
ag15
ag17
ag10
ag10
ag76
ag46
ag24
ag11
ag12
ag11
ag15
ag20
ag94
ag28
ag10
aS'realise'
p1325
ag112
ag30
aS'focuse'
p1326
ag336
ag10
ag27
ag148
ag116
ag151
ag24
ag27
ag28
ag10
ag28
ag10
aVunlock
p1327
ag10
ag113
ag17
ag535
ag10
ag1193
ag10
ag15
ag71
ag47
ag9
ag11
ag10
ag31
ag20
ag11
ag41
ag40
ag204
ag12
ag2
ag46
ag163
aVspend on
p1328
ag47
ag82
ag34
ag219
ag19
ag2
ag71
ag629
ag27
ag4
ag27
ag324
ag146
ag42
ag40
ag41
ag10
ag61
ag78
ag106
ag182
ag197
ag146
ag42
ag13
ag12
ag41
ag40
ag19
ag41
ag15
ag4
ag24
ag87
ag10
ag72
ag10
ag20
ag46
ag61
ag94
ag73
ag96
ag57
ag59
ag10
ag24
ag25
ag30
ag10
aS'been.'
p1329
aS'"visit'
p1330
ag4
ag11
ag25
ag15
ag70
ag10
ag17
ag83
ag195
ag10
ag25
ag20
ag182
ag76
ag10
ag87
ag46
ag833
ag11
ag425
ag11
ag11
ag27
ag10
ag11
ag87
ag120
ag40
ag277
ag27
ag23
ag10
ag746
ag87
ag197
ag21
ag10
ag57
ag4
ag47
ag10
ag119
ag10
ag99
ag10
ag188
ag15
ag10
ag15
ag11
ag20
ag94
ag80
ag162
ag10
ag30
ag40
ag217
ag116
ag69
ag61
ag76
ag73
ag119
ag19
ag26
ag2
ag15
ag61
ag17
ag10
ag204
ag10
ag61
ag123
ag144
ag146
ag42
ag99
ag10
ag324
ag163
ag1010
ag11
ag2
ag15
ag133
ag518
ag10
ag17
ag27
ag11
ag15
ag23
aS'use'
p1331
ag41
ag41
ag40
ag96
ag302
ag24
ag40
ag639
ag15
ag17
ag119
ag10
ag4
ag76
ag2
ag164
ag70
ag425
ag17
ag112
ag100
ag24
ag101
ag11
ag27
ag20
ag314
ag15
ag82
ag15
ag23
ag40
ag25
aVpoison
p1332
ag20
ag23
ag10
ag52
ag87
ag186
ag10
ag10
ag13
ag11
ag163
ag41
ag192
ag10
ag116
ag196
ag99
ag257
ag2
ag112
ag968
ag118
ag194
ag71
ag194
ag84
ag13
ag118
ag95
ag113
ag235
ag20
ag579
ag33
ag54
ag542
ag147
aS'behave.'
p1333
ag19
ag47
ag4
ag2
ag10
ag116
ag15
ag135
ag2
ag15
ag75
ag95
ag74
ag10
ag99
ag358
ag2
ag87
ag71
ag94
ag321
ag94
ag76
ag2
ag13
ag15
ag47
ag116
ag11
ag49
ag57
ag27
ag49
ag264
ag10
ag10
ag17
ag87
ag74
ag4
aS'use'
p1334
ag10
ag2
ag17
ag10
ag95
ag120
ag47
ag12
ag84
ag374
ag61
ag70
aS'redecorated.'
p1335
ag41
ag2
ag10
ag99
ag752
ag30
ag118
ag146
ag2
ag17
ag176
ag282
ag27
ag10
ag2
ag10
ag730
aVcould have
p1336
ag287
ag20
ag15
aS'use'
p1337
aS'use'
p1338
ag176
ag28
ag99
ag63
ag99
ag63
ag544
ag48
ag112
ag10
ag10
ag979
ag197
ag28
aVhas the reason
p1339
aVgo out
p1340
ag235
ag50
ag40
ag41
ag115
ag8
ag95
ag76
ag20
ag61
ag15
ag163
ag26
ag11
ag15
ag95
ag10
ag134
ag10
ag26
ag23
ag11
ag43
ag4
ag11
ag28
ag46
ag393
ag133
ag87
ag28
ag70
ag71
ag12
ag10
ag1096
ag83
ag614
ag133
ag4
ag72
ag4
ag14
ag84
ag170
ag10
ag192
ag151
ag105
ag364
ag71
ag46
aS'know,'
p1341
ag135
ag11
ag63
ag84
ag61
ag12
ag13
ag3
ag4
ag123
ag116
ag15
ag197
ag12
ag4
ag161
ag41
ag40
ag170
ag10
ag10
ag15
ag858
ag4
ag19
ag11
ag23
ag15
ag108
ag4
aVclear
p1342
ag309
ag182
ag61
ag151
ag27
ag517
ag170
ag41
ag40
ag87
ag37
ag23
ag4
ag76
ag4
ag47
aS'travel,'
p1343
ag528
ag15
ag10
ag59
ag12
ag46
ag28
ag17
ag192
ag15
ag101
ag74
ag302
ag42
ag61
ag4
ag76
ag163
ag96
ag4
ag57
ag11
ag10
ag71
ag316
ag134
ag4
ag161
ag10
ag15
ag503
ag95
ag3
ag2
ag27
ag542
ag317
ag28
ag76
ag4
ag148
ag188
ag119
ag59
ag40
ag76
ag135
ag133
aVinvade
p1344
ag19
ag10
ag134
ag256
ag10
ag95
ag87
ag4
ag78
ag23
ag11
ag19
ag49
ag116
ag377
ag4
ag82
ag10
ag116
ag114
ag135
ag163
ag96
ag583
ag20
ag77
ag10
ag11
ag10
ag84
aVthreaten
p1345
ag1193
ag4
ag583
ag10
aVlimit
p1346
ag10
ag120
aS'reply.'
p1347
ag15
ag2
ag603
ag127
ag59
ag11
aVexpel
p1348
ag11
ag4
aS'do.'
p1349
ag184
ag2
ag15
aS'school,'
p1350
ag197
ag12
ag59
ag40
ag27
ag19
ag20
ag20
ag10
ag374
ag82
ag84
ag61
ag93
ag10
ag133
ag71
ag10
ag10
ag175
ag105
ag137
ag23
ag11
ag114
ag197
ag17
ag218
ag27
ag88
ag10
ag4
ag87
ag101
ag13
ag10
ag83
ag116
ag49
ag2
ag71
ag170
ag2
aVbrainstorm
p1351
ag118
ag15
ag118
ag118
ag6
ag11
aS'analyse'
p1352
ag12
ag4
ag243
ag118
ag10
ag41
ag643
ag40
ag71
aS'over.'
p1353
ag77
ag49
ag40
ag114
ag1348
ag40
ag10
ag27
ag10
ag76
ag10
ag19
ag41
ag116
ag10
ag123
ag188
ag76
ag99
ag15
ag10
ag15
ag82
ag76
ag76
ag450
ag208
ag87
ag4
ag3
ag4
ag54
ag154
ag10
ag54
ag425
ag10
ag72
ag10
ag41
ag250
ag87
ag78
ag9
ag10
ag3
ag168
ag2
ag146
aVoffend
p1354
ag163
ag76
ag91
ag20
ag123
ag640
ag36
aS'need.'
p1355
ag3
ag4
ag208
ag151
ag367
ag15
ag27
ag187
ag11
ag144
ag1031
ag230
ag148
ag27
ag99
ag87
ag2
ag61
ag287
ag65
ag9
ag84
ag47
aVlock
p1356
ag130
ag82
ag11
ag11
ag105
ag28
ag54
ag15
ag10
ag19
ag12
ag40
ag108
ag20
ag17
ag10
ag61
ag211
ag188
ag123
ag12
ag147
ag19
ag15
ag364
ag10
ag77
ag17
ag10
ag25
ag217
ag73
ag99
ag10
ag20
ag379
ag20
ag70
ag3
ag15
ag33
ag10
ag83
ag61
ag61
ag10
ag114
ag44
ag6
ag424
ag46
ag271
ag10
ag11
ag6
ag61
ag13
ag10
ag82
ag91
ag17
ag322
ag11
ag15
ag82
ag271
ag17
ag151
ag160
ag160
ag15
ag123
ag161
ag41
ag163
ag4
ag46
ag41
ag40
ag93
ag229
ag10
ag33
ag629
ag194
ag41
ag10
ag137
ag10
ag2
ag942
ag13
ag27
ag9
ag40
ag164
ag87
ag41
ag116
ag59
ag146
ag42
ag411
ag12
ag72
ag23
ag95
ag10
ag271
ag12
ag76
ag44
ag27
ag134
ag27
ag27
ag115
ag10
ag82
aS'filmed.'
p1357
ag10
aVsummarize
p1358
ag170
ag28
ag49
ag37
ag20
ag10
ag20
ag335
ag159
ag83
ag134
ag10
ag4
ag10
ag23
ag54
ag61
ag15
ag188
ag27
ag17
ag15
ag11
ag614
ag134
ag10
ag27
ag17
ag15
ag40
ag10
ag41
ag42
ag61
ag10
ag10
ag11
ag10
ag47
ag19
ag64
ag2
ag10
ag579
ag123
ag10
ag87
ag15
ag10
ag20
ag10
ag49
ag7
ag148
ag71
ag23
ag468
ag23
ag43
ag12
ag4
ag91
ag46
ag11
ag197
ag23
ag24
ag74
ag23
ag15
ag10
ag83
ag10
ag2
ag23
ag517
ag123
ag4
aS'learn.'
p1359
ag279
ag76
ag1173
ag20
aS'apologise'
p1360
ag2
ag40
ag28
ag361
ag37
ag20
ag99
ag2
ag4
ag6
ag76
ag28
ag11
ag2
ag170
ag10
ag11
ag36
ag10
ag376
ag40
ag148
ag94
ag11
ag61
ag425
ag11
ag211
ag10
ag186
ag8
ag115
ag223
ag72
ag2
aS'paid'
p1361
ag10
ag40
ag41
ag483
ag262
ag17
ag505
ag27
ag11
ag12
ag15
ag46
ag106
ag66
ag135
aVtease
p1362
ag76
ag74
ag23
ag377
ag447
ag41
ag40
ag46
ag158
ag338
ag13
ag76
ag169
ag23
ag11
ag382
aS'dinner.'
p1363
ag70
ag10
ag15
ag10
ag61
ag426
ag23
ag41
ag17
aS'buy.'
p1364
ag40
ag88
ag1188
ag122
ag4
ag10
ag13
ag88
ag4
ag105
ag175
ag13
ag95
ag115
ag99
ag73
ag61
ag10
aVretell
p1365
ag15
ag73
ag61
ag11
ag101
ag513
ag10
ag70
ag123
ag15
ag10
ag15
ag2
ag11
ag11
ag119
ag27
ag10
aS'are,'
p1366
ag6
ag183
aVbreak into
p1367
aVlook at
p1368
ag8
ag17
ag84
ag348
ag46
ag188
ag61
ag40
ag41
ag115
ag8
ag4
ag11
ag87
ag187
ag23
ag15
ag123
ag17
ag10
ag10
ag810
ag99
ag69
ag19
ag99
ag91
ag10
ag119
ag202
ag76
ag12
ag265
ag212
ag175
ag262
ag263
ag13
ag734
ag376
ag40
ag10
ag181
ag10
ag559
ag134
ag49
ag20
ag2
ag10
ag9
ag9
ag15
ag99
ag283
ag963
ag61
ag83
ag4
aS'bring.'
p1369
ag170
ag76
ag4
ag17
ag13
ag544
ag71
ag54
ag15
ag713
ag106
ag23
ag47
ag219
ag13
ag15
ag27
ag49
ag391
ag82
ag28
ag54
ag27
ag114
ag49
ag7
ag7
ag10
ag19
ag115
ag17
ag204
ag8
ag10
ag4
ag208
ag4
ag54
ag10
ag52
ag47
aS'relax,'
p1370
ag17
ag17
ag163
ag36
ag2
ag15
ag115
ag23
ag82
ag197
ag202
ag736
aVtreasure
p1371
ag44
ag374
ag10
ag136
ag256
ag10
ag305
ag50
ag94
ag10
ag30
ag460
ag153
ag2
ag544
ag115
ag24
ag100
ag11
ag71
ag122
aS'filmed.'
p1372
ag204
ag134
ag4
ag137
ag146
ag61
ag262
ag230
ag376
ag82
ag10
ag122
ag106
ag20
ag2
ag10
ag10
ag19
ag19
ag4
ag10
ag304
ag163
ag10
ag94
ag116
ag15
ag170
ag40
ag71
ag15
ag20
ag33
ag23
ag19
ag10
ag80
ag59
ag116
ag160
ag82
ag163
ag59
ag135
ag217
ag593
ag82
ag415
ag458
ag11
ag25
ag83
ag135
ag194
ag61
ag10
ag17
aS'organise'
p1373
ag40
ag15
ag136
ag6
ag10
ag20
ag31
ag10
ag183
ag101
ag27
ag10
ag119
ag271
ag151
ag119
ag10
ag46
ag322
ag177
ag151
ag94
ag15
ag139
ag120
ag20
ag193
ag139
ag19
ag87
ag40
ag163
ag71
ag2
aS'advertise'
p1374
ag335
ag13
aS'use'
p1375
ag154
ag46
aS'use'
p1376
ag14
ag15
ag17
ag11
ag105
ag76
ag314
ag87
ag10
ag82
ag279
ag376
ag87
ag46
ag71
ag82
ag2
ag24
ag10
ag76
ag28
ag10
aS'organise'
p1377
ag10
ag212
ag10
ag3
ag4
ag106
ag15
ag10
ag489
ag46
ag83
aS'use'
p1378
ag87
ag82
ag10
aS'organise'
p1379
ag302
ag163
ag47
ag14
ag262
ag10
ag20
ag64
ag76
ag116
ag10
ag2
ag10
ag49
ag27
ag4
ag84
ag91
ag112
ag64
ag63
ag20
ag150
aVconceive
p1380
ag99
ag10
ag474
ag114
ag148
aVpoll
p1381
ag54
ag507
ag99
ag73
ag155
ag10
ag24
ag57
ag20
ag4
ag188
ag10
ag123
ag380
ag101
ag25
ag47
ag40
ag41
ag87
ag15
aS'served.'
p1382
ag187
ag4
ag187
ag10
ag10
ag105
ag73
ag11
ag65
ag10
ag8
ag44
ag134
ag10
ag115
ag305
ag27
ag112
ag61
ag528
ag230
ag10
ag163
ag32
ag46
ag10
ag106
ag43
ag10
ag250
ag42
ag415
ag61
ag391
aS'(see'
p1383
ag3
ag49
ag41
ag23
ag15
ag133
aS'trust.'
p1384
ag338
ag27
ag15
ag146
ag12
ag54
ag4
ag420
ag19
ag106
ag128
ag49
ag415
ag10
ag61
ag10
ag136
ag379
ag10
aS'available.'
p1385
ag19
ag11
ag71
ag105
ag99
ag15
ag10
ag10
ag10
ag87
ag3
ag151
ag11
ag15
ag197
ag27
ag2
ag51
ag447
ag71
ag15
ag27
ag10
ag2
aS'know,'
p1386
ag148
ag279
ag15
ag17
ag61
ag24
ag87
ag99
ag484
ag99
ag10
ag4
aS'expected.'
p1387
ag10
ag47
ag10
ag133
ag230
ag73
ag84
ag87
ag230
aS'do?'
p1388
ag43
ag10
ag93
ag138
ag25
ag27
ag245
ag106
ag10
ag45
ag17
ag10
ag10
ag28
ag43
ag107
ag10
ag40
ag65
ag115
ag59
ag12
ag218
ag116
ag28
ag188
ag193
ag36
ag101
ag563
ag549
ag146
ag12
ag28
ag101
ag151
ag183
ag73
ag99
ag79
ag563
ag64
ag12
aS'take,'
p1389
ag133
ag4
ag87
ag10
ag219
ag123
ag25
ag15
ag4
ag123
ag57
ag147
ag115
ag10
aVsupply
p1390
ag11
ag27
ag40
ag99
ag263
ag230
ag87
ag4
ag118
ag10
ag10
ag823
ag42
ag27
ag12
ag746
ag10
ag586
ag4
ag113
ag17
ag23
ag40
ag197
ag84
ag73
ag4
ag11
ag41
ag40
ag192
ag6
ag82
ag40
ag82
ag83
ag10
ag583
ag12
ag95
ag19
ag119
ag27
ag186
ag10
ag27
ag28
ag19
ag10
ag15
ag470
aS'relax,'
p1391
ag17
ag55
ag425
ag40
ag33
ag115
aS'paid.'
p1392
ag400
ag11
ag13
ag27
ag146
ag84
aVbed
p1393
ag47
ag15
ag15
ag134
ag25
ag10
ag188
ag73
ag279
ag49
ag217
ag121
ag15
ag163
ag55
ag40
ag744
ag63
ag11
ag261
ag28
ag383
ag105
ag15
ag172
aVtest
p1394
ag279
ag46
ag10
aS'bring.'
p1395
ag12
ag146
ag136
ag10
aS'"couch'
p1396
ag377
ag212
ag10
ag69
ag302
ag73
ag170
ag28
ag134
ag11
ag54
ag23
ag83
ag256
ag10
ag15
ag187
ag8
ag122
ag134
ag13
ag83
ag806
ag262
ag160
ag27
ag4
ag10
aS'paid.'
p1397
ag74
ag256
ag179
ag4
ag94
ag324
ag17
ag322
ag40
ag2
ag113
ag54
ag118
ag25
ag10
ag542
ag54
ag116
ag27
ag106
ag70
ag170
ag123
ag146
ag2
ag54
ag12
ag44
ag12
ag87
ag24
ag11
ag4
ag44
aS'tenni'
p1398
aVthumb
p1399
ag28
ag108
ag238
ag28
ag263
ag134
ag457
aS'advertise'
p1400
ag134
ag10
ag119
ag27
aS'see,'
p1401
ag54
ag41
aS"don't,"
p1402
ag4
ag44
ag134
ag11
ag10
ag24
ag250
ag73
ag99
ag12
ag61
ag87
ag54
ag197
ag163
ag87
ag6
ag27
ag118
aVtaste
p1403
ag116
ag316
ag10
ag11
ag28
ag4
aVcome true
p1404
aS'use'
p1405
aVcontaminate
p1406
ag148
ag4
ag10
ag20
ag10
ag25
ag77
ag292
ag146
aS'in,'
p1407
ag118
ag71
ag95
ag11
ag37
ag91
ag182
ag41
ag10
ag134
ag310
ag10
ag359
ag163
ag10
ag28
ag10
ag82
ag10
ag43
ag4
ag10
ag10
ag15
ag320
ag12
ag163
ag49
ag20
ag186
ag20
ag17
ag10
ag82
ag27
ag223
ag420
ag13
ag10
ag11
ag4
ag870
aVprofit
p1408
ag231
ag14
ag84
ag11
ag230
ag1260
ag12
ag335
ag28
ag15
ag148
ag13
ag12
ag45
ag10
ag54
ag11
ag400
ag505
ag54
ag115
ag579
ag11
ag95
ag80
aS'sing,'
p1409
ag10
ag332
ag94
ag242
ag110
ag243
ag10
aS'say:'
p1410
ag2
ag10
ag71
ag148
ag47
ag23
ag10
ag27
ag11
aS'need?'
p1411
ag116
ag87
ag27
ag65
ag151
aVforbid
p1412
ag47
aVtook into account
p1413
ag10
ag133
ag19
ag87
ag2
ag590
ag10
ag61
ag24
ag46
ag151
ag148
ag10
ag82
ag40
ag2
ag70
aVstarve
p1414
ag17
ag59
ag10
ag23
ag63
ag99
ag192
ag4
aVphotograph
p1415
ag74
ag4
ag15
ag478
ag83
ag118
aVmail
p1416
ag20
ag96
ag87
ag54
ag70
ag15
ag148
ag204
ag61
ag15
ag271
ag27
ag10
aS'now...'
p1417
ag13
ag91
ag10
ag28
ag195
ag10
ag15
ag12
ag61
ag1278
ag10
ag120
ag3
ag4
ag87
ag559
ag78
ag15
ag10
ag10
ag145
ag116
ag67
ag118
ag11
ag148
ag535
ag161
ag148
ag535
ag64
ag15
ag338
ag99
ag19
ag1358
ag15
ag40
ag41
ag87
ag47
ag15
ag4
ag23
ag2
ag332
ag46
ag45
ag24
ag100
ag20
ag33
ag13
ag46
ag54
ag61
ag15
ag24
ag188
ag40
ag41
ag2
ag87
ag180
ag10
ag72
ag19
ag76
ag4
aS'said:'
p1418
ag118
ag40
ag27
ag336
aS'"sacrifice"'
p1419
ag133
ag10
ag2
ag94
ag25
ag862
ag15
ag116
ag47
ag112
ag4
ag11
ag10
ag545
ag10
ag76
ag100
ag24
ag17
ag33
ag10
ag47
ag163
ag203
ag76
ag151
ag20
ag154
ag17
ag135
ag36
ag83
ag4
ag13
ag10
ag20
ag960
ag12
ag40
ag15
ag17
ag60
ag862
ag77
ag249
ag383
ag10
ag55
ag49
ag230
ag10
ag10
ag10
ag161
ag331
ag96
ag11
ag282
ag221
ag261
ag30
ag48
ag161
ag17
ag199
ag963
aS'use'
p1420
ag82
ag27
ag338
ag168
ag28
ag170
ag15
ag13
ag10
ag41
aS'feel?'
p1421
ag148
ag2
ag163
ag4
ag2
ag73
ag99
ag426
ag30
ag162
ag41
ag197
ag12
aS'do.'
p1422
ag27
ag282
ag54
ag2
ag11
ag13
ag187
ag10
ag128
ag35
ag96
ag146
ag42
ag57
ag24
ag10
ag20
ag20
ag2
ag338
ag110
ag15
ag289
ag40
aS'reorganise'
p1423
ag61
ag27
ag82
ag13
aS'relax,'
p1424
ag23
ag142
ag27
ag151
ag20
ag15
ag10
ag190
ag12
ag11
ag12
ag1292
ag100
ag24
ag101
ag15
ag71
ag74
ag15
ag61
ag11
ag46
ag116
aS'say:'
p1425
ag12
ag12
ag10
ag33
ag54
ag10
ag4
ag279
ag15
ag118
ag87
ag61
ag10
ag10
ag15
ag11
ag11
ag34
ag119
ag95
ag28
ag17
ag271
ag9
ag87
ag10
ag28
ag151
ag12
ag45
ag71
ag41
ag40
ag47
ag106
ag33
ag35
ag84
ag28
ag119
ag23
aVi'm
p1426
ag377
ag11
ag2
ag26
ag3
ag2
ag94
ag66
ag265
ag27
ag45
ag83
ag26
ag24
ag76
ag45
ag4
ag170
ag10
ag17
ag133
ag10
ag12
aS'take.'
p1427
ag278
ag4
ag54
ag905
ag859
ag101
ag374
ag10
ag76
ag23
ag25
ag28
ag99
ag73
ag123
ag10
ag15
ag95
ag44
ag27
ag2
ag17
ag250
ag105
ag28
ag10
ag151
ag104
ag25
ag46
ag27
ag256
ag119
ag61
ag12
ag11
ag118
ag10
aS'perfect.'
p1428
ag41
ag40
ag7
ag21
ag28
aS'know,'
p1429
ag74
ag94
ag347
ag10
ag10
ag10
ag21
ag163
ag279
ag94
ag10
ag15
ag15
ag27
ag119
ag15
ag579
ag15
ag128
ag142
ag118
ag19
ag8
ag133
ag63
ag6
ag10
ag11
aS'know,'
p1430
ag10
ag180
ag10
ag94
ag10
aS'know,'
p1431
ag25
ag13
ag12
ag10
ag197
ag10
ag28
ag8
ag115
ag235
ag305
ag12
ag155
ag43
ag16
ag537
ag7
ag4
ag115
ag20
ag148
ag12
ag2
ag203
ag23
ag12
ag10
ag119
ag27
aS"that'"
p1432
ag3
ag12
ag10
ag16
ag41
ag40
ag15
aVgraduate
p1433
ag10
ag218
ag66
ag10
ag72
ag10
ag87
ag19
ag94
ag28
ag17
ag14
ag8
ag115
ag192
ag10
ag61
ag15
ag76
ag12
ag607
ag11
ag4
ag11
ag71
ag137
ag13
ag505
ag20
ag61
ag10
ag279
ag197
aS'happened.'
p1434
ag219
ag33
ag70
ag160
ag31
ag33
ag219
ag10
ag27
ag8
ag115
ag7
ag27
ag74
ag151
ag19
ag11
ag17
ag10
ag2
ag24
ag100
ag154
ag250
ag24
ag119
ag84
ag10
ag40
ag133
ag28
ag47
ag10
ag23
ag20
ag739
ag87
ag484
ag514
ag10
ag61
ag11
ag10
ag21
ag10
ag223
ag739
ag112
ag9
ag13
ag28
ag584
ag1238
ag11
ag40
ag59
ag135
aS'change.'
p1435
ag40
ag41
ag100
ag13
ag28
ag87
ag119
ag15
ag287
ag84
ag4
ag134
ag95
ag155
ag373
ag40
ag41
ag17
ag71
ag17
ag15
ag10
ag73
ag99
aVquarrel
p1436
ag55
ag15
ag164
ag83
ag81
ag47
ag12
ag42
ag2
ag8
ag105
aS'learn.'
p1437
ag12
ag4
ag64
ag10
ag87
ag10
ag76
ag8
ag99
ag10
ag7
ag47
ag133
ag874
ag10
ag347
ag44
ag91
ag13
ag10
ag423
ag11
ag23
ag12
ag46
ag71
ag25
ag4
ag24
ag184
aVassume
p1438
ag15
ag133
ag73
ag99
ag23
ag15
ag10
ag3
ag94
ag19
ag172
ag164
ag10
ag12
ag10
ag100
ag1142
ag1142
ag87
ag71
ag84
ag279
ag121
ag194
ag19
ag960
ag639
ag197
ag197
ag50
ag134
ag27
aS'organise'
p1439
ag4
ag76
ag811
ag161
ag17
ag146
ag348
ag207
ag197
ag11
ag358
ag4
ag187
ag27
ag12
ag4
ag88
ag11
ag11
ag70
aVslip
p1440
ag10
ag61
ag28
ag20
ag31
ag988
ag101
ag15
ag91
ag44
ag71
ag13
ag245
ag2
ag223
ag4
ag97
ag243
ag309
ag13
ag76
ag87
ag197
ag250
ag76
ag415
ag10
ag27
ag15
ag179
ag13
ag61
ag88
ag319
ag72
ag20
ag49
ag11
aVrestrict
p1441
ag94
ag10
ag15
ag82
ag9
ag82
ag15
ag27
ag33
ag204
ag76
ag4
aS"'theatre"
p1442
ag547
ag28
ag10
ag10
ag437
ag87
ag23
aVgrows up
p1443
ag4
ag118
ag118
ag17
ag40
ag188
ag87
ag48
ag23
ag12
ag82
ag25
ag10
ag123
ag170
aS'filmed.'
p1444
aVhound
p1445
ag226
ag35
ag95
ag44
ag4
ag23
ag27
ag36
ag2
ag10
ag220
ag302
ag94
ag46
ag33
ag10
ag116
ag23
ag11
ag463
ag137
ag13
ag2
ag10
ag158
ag76
ag134
ag36
ag71
ag4
ag11
ag15
ag15
ag71
ag112
ag617
ag226
ag112
ag10
ag2
aS'see.'
p1446
ag82
ag11
ag72
ag41
ag80
ag10
ag87
aS'need.'
p1447
ag40
ag47
ag27
ag61
ag49
ag59
ag70
ag31
ag20
ag82
ag15
ag76
ag115
ag10
ag151
ag2
ag20
ag66
ag10
ag99
ag91
ag170
aS'filmed.'
p1448
ag151
ag61
ag4
ag82
ag10
ag230
ag61
ag4
ag46
ag150
ag46
ag123
ag10
ag44
ag322
ag186
ag95
ag161
ag33
ag17
ag133
ag328
ag10
ag61
aVchoke
p1449
ag49
ag25
ag10
ag901
ag25
ag28
ag10
ag167
ag99
ag73
ag61
ag10
ag151
ag71
ag46
ag134
ag161
ag4
ag95
ag99
ag28
ag60
ag36
ag858
ag219
ag82
ag12
ag23
ag10
ag13
ag7
ag23
ag4
ag7
ag10
ag7
ag4
ag20
ag15
ag61
ag10
ag46
ag204
ag15
ag194
ag736
ag46
ag10
ag583
ag106
ag23
ag96
ag484
ag314
ag116
ag332
ag194
ag11
ag2
ag20
ag41
ag221
ag639
ag27
ag10
ag25
ag11
ag296
ag114
ag320
ag374
ag40
ag10
ag309
ag99
ag27
ag15
ag17
ag87
ag27
ag27
ag1177
aVhave also taken place
p1450
ag96
ag61
ag19
ag380
aVsue
p1451
ag10
ag19
aS"it'"
p1452
ag15
ag163
ag2
ag17
ag95
ag186
ag101
ag304
ag87
ag10
ag39
ag233
ag41
ag49
ag23
ag146
ag374
ag54
ag12
ag100
ag41
ag10
ag119
ag27
ag94
ag10
ag71
ag134
ag208
ag4
ag72
ag24
ag41
ag10
ag164
ag47
ag278
ag46
ag302
aVmake sure
p1453
ag335
ag10
ag183
ag2
ag143
ag104
ag19
ag40
ag10
ag19
ag61
ag19
ag84
ag10
ag123
ag150
ag70
ag20
ag17
ag28
ag13
ag12
ag118
ag10
ag186
ag4
ag28
ag40
ag22
ag10
ag10
ag28
ag2
ag95
aS'use'
p1454
ag19
ag61
ag61
ag28
ag46
ag163
ag31
ag123
ag47
ag4
ag28
ag87
ag11
ag15
ag28
ag11
ag175
ag27
ag2
ag279
ag314
ag169
ag603
ag4
ag50
ag15
ag380
ag20
ag10
ag20
ag15
ag148
ag11
ag114
ag148
ag23
ag275
ag136
ag10
ag161
ag15
ag11
ag63
ag119
ag10
ag10
ag47
ag13
ag11
ag13
ag12
ag11
ag43
ag282
ag101
ag40
ag23
ag338
ag415
ag15
aS'buy,'
p1455
ag607
ag7
ag10
ag20
ag87
ag47
ag12
ag10
ag188
ag212
ag71
ag17
aS'find.'
p1456
ag10
ag245
ag10
ag24
ag713
ag10
ag87
ag13
ag161
ag144
ag10
ag192
aS'filmed.'
p1457
ag10
aS'built;'
p1458
ag170
ag23
ag30
ag40
ag49
ag41
aVi'm
p1459
ag179
ag130
ag27
ag15
ag26
ag24
ag923
ag10
ag2
ag4
ag61
ag54
ag99
ag73
ag15
ag10
ag13
ag108
ag116
ag27
ag95
ag13
ag33
ag33
ag116
ag24
ag960
ag115
ag4
ag27
ag11
ag27
aS"it'"
p1460
ag150
ag123
aVobsess
p1461
ag10
ag43
ag63
ag15
ag24
ag40
ag87
ag12
ag83
ag133
aS'organise'
p1462
ag105
ag73
ag182
ag322
ag197
ag877
ag91
ag91
ag71
ag17
ag156
ag24
ag19
ag23
ag278
ag193
ag13
ag217
ag940
ag104
ag2
ag28
ag17
ag15
ag27
ag20
ag20
ag17
ag10
ag15
ag4
ag123
ag11
ag713
ag12
ag11
ag61
ag188
ag54
ag12
ag20
ag2
ag40
ag41
ag172
aVhasn't been at
p1463
ag23
ag23
ag64
ag23
ag54
ag2
ag87
ag10
ag96
ag41
ag15
ag10
ag40
ag10
ag15
ag9
ag10
ag367
ag186
ag310
ag40
ag59
ag307
ag163
ag59
ag17
ag322
ag87
ag377
ag11
ag212
ag305
ag197
ag40
aVpray
p1464
ag197
ag484
ag61
ag23
ag54
ag23
ag12
ag4
ag25
ag10
ag11
ag271
ag163
ag55
ag188
ag70
ag57
ag119
ag36
ag23
ag54
ag12
ag11
ag63
ag15
ag87
ag188
ag114
ag10
ag11
ag87
ag11
ag136
ag183
ag11
ag99
ag105
ag9
ag19
ag42
ag33
ag283
ag95
ag4
ag61
ag14
ag15
ag33
ag4
ag111
ag322
ag73
ag60
ag76
ag76
ag10
ag27
ag112
ag88
ag19
ag684
ag7
ag10
ag73
ag15
ag10
ag61
ag76
ag10
ag112
aS'do.'
p1465
ag15
ag11
ag28
ag12
ag10
ag15
ag73
ag99
ag10
ag25
ag23
ag3
ag4
ag28
ag46
ag10
ag105
ag15
ag332
ag4
ag61
ag82
ag24
ag170
ag123
ag15
ag245
ag10
ag2
ag232
ag95
ag148
ag17
ag10
ag10
ag204
ag87
ag23
ag112
ag8
ag154
ag4
ag3
ag10
ag10
aS'filmed.'
p1466
aVsingle
p1467
ag11
ag87
ag4
ag3
ag10
ag10
ag115
ag58
ag4
ag197
ag12
ag163
ag4
ag13
ag61
ag41
ag314
ag73
ag99
ag15
aS'realise'
p1468
ag27
aS'prepared.'
p1469
ag30
ag11
ag206
ag182
ag10
ag87
ag10
ag19
ag115
ag10
ag110
ag179
ag4
ag20
ag15
ag1014
ag322
ag49
ag172
ag29
ag73
ag12
ag10
aS'take.'
p1470
ag12
ag12
ag4
ag20
ag20
ag19
ag136
ag77
ag134
ag148
ag148
ag2
ag513
ag23
aVhiring himself out
p1471
ag11
ag264
ag28
ag11
ag95
ag49
ag44
ag4
ag2
ag11
ag4
ag27
ag245
ag11
ag377
aS'diappoint'
p1472
ag84
ag28
ag15
ag142
ag4
ag115
ag41
ag40
ag41
ag40
ag40
ag41
ag2
ag10
ag40
ag101
ag27
ag99
ag40
ag37
ag16
ag149
ag27
ag87
ag163
ag230
ag28
ag61
ag11
ag118
ag23
ag204
ag99
ag10
ag61
ag10
ag760
ag4
ag11
ag15
ag116
ag78
ag11
ag271
ag17
ag897
ag64
ag207
ag353
ag32
ag148
ag172
ag13
ag15
ag15
ag84
ag61
ag212
ag197
ag123
ag83
ag172
ag46
ag268
ag40
ag59
ag87
ag4
ag101
ag194
aS'advertise'
p1473
ag73
ag99
ag316
aS'advertise'
p1474
ag20
ag20
ag12
ag15
ag322
ag13
ag59
ag11
ag12
ag2
ag63
ag10
ag193
ag146
ag12
ag33
ag83
aS'bring.'
p1475
ag41
ag163
ag71
ag163
ag511
ag900
ag474
ag172
ag10
ag12
ag11
ag1237
ag211
aVdare
p1476
aVban
p1477
ag47
ag19
ag91
ag11
ag10
ag505
aS'windsurf'
p1478
ag217
ag37
ag15
ag20
ag20
ag105
ag10
ag306
ag4
ag27
ag58
aS'get.'
p1479
ag870
ag17
ag2
ag71
ag67
ag584
ag27
ag87
ag99
ag13
ag133
ag61
ag40
ag41
ag319
aS'use'
p1480
aVlean
p1481
ag1394
ag338
aS'alone.'
p1482
ag10
ag13
ag123
ag63
ag13
ag8
ag53
ag23
ag116
ag57
ag10
ag10
ag197
ag230
ag11
ag54
aS'shopping:'
p1483
ag138
ag19
ag118
ag119
ag83
aS'created.'
p1484
ag19
ag10
ag148
ag11
ag380
ag218
ag23
ag83
ag82
ag1436
ag380
ag30
ag46
ag40
ag82
ag47
ag15
ag919
ag13
ag12
ag84
ag19
ag15
ag61
ag116
ag175
ag94
ag305
aS'consequently,'
p1485
ag47
ag2
ag450
ag11
ag15
ag13
ag15
ag47
ag134
ag61
ag10
ag11
ag54
ag17
ag15
ag33
ag10
aVretire
p1486
ag10
ag10
ag27
ag83
ag14
ag172
aVcorrespond
p1487
ag71
ag306
ag11
ag4
ag76
aS'paralyse'
p1488
ag10
ag105
ag468
ag11
ag60
ag53
ag15
ag10
ag11
ag2
ag28
ag10
ag94
ag219
ag41
aS"'m"
p1489
ag40
ag11
ag64
ag10
ag61
ag116
ag13
aS'panic.'
p1490
ag32
ag46
ag19
ag2
ag13
ag4
ag423
ag76
ag4
ag3
ag10
ag46
ag13
ag24
ag47
ag87
ag238
ag212
ag87
ag46
ag287
ag179
ag46
aS'paid'
p1491
ag17
ag40
ag233
ag10
ag83
ag10
ag61
ag2
ag84
ag35
ag27
ag28
ag15
ag579
aVtake account of
p1492
ag193
ag40
ag292
ag42
ag13
ag15
ag82
ag17
ag43
ag10
ag162
ag10
ag123
ag447
ag24
ag10
ag49
ag13
ag841
ag11
ag4
ag41
ag87
ag76
ag963
ag61
ag247
ag161
ag204
ag27
ag11
ag10
ag27
ag535
ag46
ag27
ag309
ag2
ag156
ag319
aVfear
p1493
ag11
ag37
ag84
ag33
ag204
ag69
ag20
ag196
ag245
ag54
ag10
ag138
ag2
ag23
ag105
ag177
ag2
ag8
ag543
ag19
ag10
ag137
ag151
ag11
ag134
ag10
ag46
ag146
ag27
ag10
ag11
ag8
ag7
ag54
ag11
ag54
ag568
ag61
ag400
ag7
ag61
ag4
ag10
ag322
ag17
ag20
ag50
aS'better.'
p1494
ag163
ag47
ag187
ag19
ag84
ag73
ag61
ag338
aVstick
p1495
ag10
ag47
ag61
ag10
ag1393
ag10
ag243
ag15
ag12
ag61
ag10
ag134
ag115
ag10
ag11
ag10
ag71
ag61
ag47
ag71
ag10
ag96
aVhook
p1496
aS'fee'
p1497
ag42
ag26
ag87
ag13
ag127
ag17
ag684
ag99
ag192
ag10
ag111
ag105
ag27
ag15
ag111
ag170
ag33
ag4
ag10
ag10
ag4
ag15
ag33
ag101
ag192
ag54
ag10
ag9
ag54
ag87
ag1114
ag24
ag186
ag23
ag49
ag20
ag16
ag44
ag10
ag19
ag15
ag197
ag61
ag47
ag49
ag10
ag23
ag317
ag105
ag230
ag11
aS'apologise'
p1498
ag17
ag665
ag197
ag28
ag54
ag10
ag135
ag182
ag436
ag17
ag40
ag15
ag11
ag11
ag17
ag119
aVtear
p1499
ag46
ag15
ag197
ag15
ag361
ag150
ag123
ag47
ag194
ag101
ag322
ag61
ag25
ag204
ag20
ag528
ag61
ag10
ag82
ag15
ag40
ag59
ag10
ag27
aS'filmed.'
p1500
ag4
ag12
ag40
ag148
ag402
ag10
ag115
ag332
ag57
ag28
ag327
ag193
aVtype
p1501
ag72
ag618
ag257
ag279
ag25
ag151
ag84
ag306
ag13
ag40
ag188
ag77
ag261
ag23
ag11
ag217
ag134
ag305
ag11
aVused to
p1502
ag10
ag11
ag41
ag63
ag10
ag10
ag10
ag225
ag27
ag11
ag730
ag15
ag31
ag10
ag15
ag13
ag61
ag10
ag19
ag146
ag119
ag10
ag87
ag24
ag50
ag112
ag59
ag77
ag20
ag73
ag10
ag151
ag148
ag2
aS"it'"
p1503
ag28
ag50
ag82
aVscour
p1504
ag2
ag27
ag212
ag41
ag40
ag99
ag73
ag27
ag11
ag17
ag13
ag11
ag134
ag105
ag15
ag87
ag11
ag377
ag109
ag4
ag41
ag115
ag901
ag115
ag11
ag164
ag11
ag105
ag37
ag2
ag19
ag116
ag10
ag11
aVcolour
p1505
ag20
ag15
ag3
ag4
ag2
ag10
ag148
ag134
ag105
ag87
ag10
ag2
ag17
ag33
ag197
ag104
ag25
aS'tennis,'
p1506
ag11
ag256
ag4
ag282
ag464
ag76
ag2
ag134
ag10
ag20
ag20
ag187
ag95
ag63
ag377
ag11
ag233
ag257
ag118
ag148
ag99
ag15
ag23
ag134
ag160
ag10
ag27
ag144
ag95
ag11
ag50
ag197
ag10
ag116
ag40
ag10
ag13
ag15
ag163
ag230
ag94
ag133
ag20
ag11
ag54
ag33
ag391
ag12
ag112
ag188
ag135
ag61
ag10
ag114
ag24
ag34
ag61
ag123
ag15
ag118
ag161
ag2
aVsense
p1507
ag13
aS'go,'
p1508
aVcling
p1509
ag32
ag61
ag43
ag40
ag41
ag40
ag10
aS'done.'
p1510
ag61
ag163
ag17
ag135
ag29
ag40
ag47
ag80
ag41
ag155
ag10
ag154
ag22
ag74
ag95
ag10
ag10
ag83
ag10
ag11
ag11
ag99
ag73
ag11
ag25
ag27
ag116
ag94
ag4
ag82
ag133
ag25
ag82
ag36
ag371
ag903
ag10
ag23
ag82
ag348
ag54
ag33
ag78
ag73
ag99
ag99
ag73
ag64
aS'realise'
p1511
ag99
ag76
ag47
ag15
ag11
ag170
ag88
ag45
ag12
ag40
ag859
ag36
ag163
ag61
ag4
ag73
ag83
ag116
ag13
ag40
ag10
ag46
ag11
ag94
ag220
ag87
ag13
ag43
ag87
ag76
ag10
ag23
ag73
ag13
ag752
ag42
ag87
ag11
ag19
ag10
ag134
ag160
ag54
ag13
ag10
ag11
ag46
ag373
ag46
ag110
ag76
ag11
ag65
ag10
ag11
ag163
ag517
ag119
ag27
ag11
ag41
ag40
ag54
ag19
ag235
ag146
ag15
ag145
ag54
ag367
ag617
ag73
ag10
aS"don't,"
p1512
ag82
ag82
ag36
ag25
ag115
ag8
ag4
aS'ask.'
p1513
ag8
ag115
ag4
ag28
ag114
ag20
ag31
ag379
ag148
ag71
ag101
ag792
ag112
ag23
ag23
ag10
ag133
ag20
ag322
aVbetray
p1514
ag760
ag11
ag4
ag212
ag26
ag100
ag10
ag2
aVyou've
p1515
ag19
ag67
ag2
ag10
ag3
ag54
ag229
ag41
ag133
ag87
ag13
ag28
ag197
ag10
ag8
ag10
ag116
ag115
ag13
ag11
ag15
ag54
ag23
ag47
ag17
ag12
ag19
ag10
ag115
ag91
ag51
ag1014
ag52
ag41
ag163
ag29
ag28
ag54
ag11
ag40
ag41
ag99
ag309
ag148
ag155
ag11
ag10
ag13
ag11
ag132
ag163
ag9
ag116
ag96
ag23
ag46
aS'organise'
p1516
ag10
ag73
ag309
ag64
ag138
ag19
ag118
ag64
ag59
ag10
ag40
ag115
ag134
ag107
ag23
ag134
ag13
ag10
ag208
ag10
ag618
ag115
ag10
ag8
ag115
ag72
ag10
ag94
ag114
ag113
ag15
ag69
ag82
ag20
ag11
ag20
ag37
ag19
ag4
ag76
ag4
ag19
ag49
ag614
ag279
ag163
ag186
ag17
ag159
ag10
ag10
ag11
ag1412
ag11
ag163
ag87
ag2
ag12
ag19
ag48
ag116
ag15
ag47
ag292
ag11
ag82
ag73
ag99
ag13
ag7
ag71
ag10
ag543
ag134
ag12
ag120
ag118
ag27
ag6
ag100
ag24
ag225
ag6
ag233
ag19
ag65
ag24
ag47
ag15
ag12
ag112
ag470
ag10
ag119
ag71
ag11
ag138
ag46
ag182
ag6
ag425
ag172
ag119
aS'filmed.'
p1517
ag27
ag13
ag11
ag10
ag113
aS'there.'
p1518
ag300
ag376
ag91
ag17
ag134
ag88
ag11
ag54
ag134
ag134
ag119
ag47
ag23
ag4
ag15
ag87
ag41
ag40
ag188
ag112
ag279
ag23
ag148
ag23
ag256
ag107
aVre-fund
p1519
ag175
ag4
ag10
ag12
ag275
ag204
ag28
ag6
ag226
ag119
ag41
ag40
ag91
ag10
ag614
aS'use'
p1520
aVheat
p1521
ag28
ag94
ag105
ag8
aVburn
p1522
ag617
ag70
ag10
ag2
ag17
aS"we're"
p1523
ag15
ag48
ag13
ag116
ag245
ag245
ag17
ag30
ag10
ag133
ag4
aS'received.'
p1524
ag10
ag2
ag41
ag40
ag112
ag28
ag3
aS'you,'
p1525
ag147
ag24
ag314
ag137
ag11
ag10
ag134
ag12
ag11
ag97
aVnod
p1526
ag99
ag377
ag158
ag27
ag11
ag12
ag150
ag457
ag204
ag40
ag15
ag4
ag615
ag2
ag211
ag9
ag2
ag82
ag84
ag61
ag13
ag470
ag10
ag61
aS'july.'
p1527
ag15
ag94
ag280
ag163
ag40
ag27
ag279
ag14
ag58
ag2
ag71
ag163
ag36
ag76
ag77
ag41
ag20
ag59
ag24
ag27
ag61
ag28
ag238
ag49
ag37
ag20
ag20
ag10
ag133
ag57
ag24
ag115
ag8
ag10
ag84
ag71
ag91
ag44
ag112
ag10
ag287
ag10
aVjog
p1528
ag235
ag148
ag164
ag82
ag43
ag10
ag95
ag87
ag10
ag71
ag46
ag11
ag20
ag83
ag4
ag275
ag78
ag112
ag95
ag134
ag310
ag4
ag15
ag115
aS"you'd"
p1529
ag133
ag250
ag24
ag12
ag146
ag72
ag10
ag180
ag10
ag12
ag204
ag19
ag10
aS'sart'
p1530
ag20
ag94
ag114
ag10
ag135
ag204
ag33
ag116
ag10
ag61
ag66
ag20
ag121
ag223
ag10
ag40
ag41
ag101
ag24
ag28
ag27
ag166
ag380
ag11
aVsurrender
p1531
ag11
ag61
ag10
ag175
ag40
ag116
ag359
ag11
ag10
ag377
ag20
ag28
ag28
ag10
ag52
ag134
ag13
aS'try,'
p1532
ag6
ag19
ag230
ag15
ag11
ag84
ag91
ag371
ag27
aVright
p1533
ag6
ag23
ag11
ag10
ag238
ag118
ag87
ag40
ag20
ag10
ag11
ag105
ag4
ag13
ag3
ag49
ag106
ag447
ag20
ag71
ag135
ag83
ag10
ag15
ag33
ag61
ag108
ag70
ag271
ag2
aVenclose
p1534
ag425
ag84
ag54
ag23
ag4
ag76
ag188
ag40
aS'use'
p1535
ag40
ag72
ag41
ag10
aS'organise'
p1536
ag12
ag11
ag27
ag194
ag83
ag17
ag10
aS'happened.'
p1537
ag20
ag833
aVshow them
p1538
ag82
ag10
ag59
ag10
ag4
ag44
ag40
ag41
ag10
ag61
ag82
ag119
ag1028
ag10
ag116
ag15
ag23
ag24
ag100
ag47
ag17
ag82
ag11
ag148
ag425
ag13
ag61
ag12
ag41
ag46
ag158
ag24
ag87
ag27
ag65
ag82
ag175
ag279
ag10
ag44
ag23
ag27
ag4
ag11
ag4
ag150
ag61
ag3
ag4
ag27
ag13
ag47
ag193
ag74
ag33
ag457
ag15
ag73
ag55
ag114
ag106
ag4
ag47
ag4
ag44
ag4
ag8
ag115
ag212
ag78
ag10
ag20
ag10
ag13
ag199
ag116
ag40
ag542
ag3
ag271
aVscreen
p1539
aVjoining at
p1540
ag57
ag115
ag25
ag23
ag54
ag12
ag4
ag27
ag294
ag11
ag13
ag96
ag158
ag72
ag27
ag10
aS'boring.'
p1541
ag70
ag15
ag33
ag123
ag579
ag87
aS'walk.'
p1542
ag233
ag2
ag2
ag64
ag23
ag346
ag71
ag45
ag113
ag19
aVbeing star
p1543
ag262
ag20
ag15
ag592
ag49
ag218
ag48
ag10
ag15
ag170
ag15
ag116
ag163
ag10
ag380
ag17
ag11
ag139
ag10
ag15
ag188
ag188
ag41
ag40
ag20
ag24
ag265
ag10
ag17
ag10
ag15
ag115
ag4
ag76
ag10
ag10
ag115
ag217
ag119
ag41
ag332
ag156
ag17
ag15
ag151
ag11
ag23
ag230
ag77
ag128
ag87
ag83
ag49
ag11
ag81
ag61
ag101
ag15
ag19
ag135
ag13
ag17
ag123
ag114
ag683
ag4
ag61
ag10
ag23
ag10
ag87
ag4
ag24
ag329
ag76
ag31
ag13
ag70
ag309
ag65
ag119
ag10
ag19
ag10
ag118
ag156
ag24
ag6
ag15
ag310
ag27
ag374
ag167
ag18
ag12
ag197
ag133
ag175
ag40
ag1292
ag331
ag1486
ag95
ag11
ag4
ag133
ag10
ag151
ag164
ag10
ag116
ag25
ag10
ag95
ag10
ag53
ag10
aVdevote
p1544
ag2
ag322
aVdisplease
p1545
ag27
ag23
ag87
ag27
ag163
ag13
ag230
ag150
ag76
ag20
ag15
ag12
ag48
ag23
ag15
ag27
ag99
ag11
ag20
ag12
ag134
ag23
ag361
ag243
ag988
ag20
ag15
ag17
ag544
ag118
ag28
ag17
ag40
ag59
ag15
ag69
ag61
ag220
ag71
ag101
ag177
ag42
ag87
ag64
ag19
ag10
ag116
ag271
ag50
ag10
ag21
aS'realise'
p1546
ag11
ag12
ag61
ag10
ag15
ag201
ag37
ag28
ag40
ag160
ag302
ag10
ag133
ag321
ag40
ag163
ag24
ag100
ag71
ag94
aS'forget.'
p1547
ag100
ag12
ag4
ag15
ag116
ag10
ag94
ag10
ag10
ag41
ag38
ag138
ag138
ag70
ag10
ag28
ag46
ag112
ag205
ag134
ag279
ag61
ag24
ag10
ag43
ag24
ag186
ag170
ag15
ag186
ag61
ag137
ag10
ag60
ag76
ag425
ag275
ag3
ag94
ag10
ag4
ag40
ag41
ag10
ag41
ag40
ag309
ag314
aS"customers'"
p1548
ag49
ag10
ag15
ag2
ag199
ag10
ag186
ag23
ag95
ag115
ag8
ag83
ag4
ag118
ag63
ag66
ag99
ag73
ag10
ag1403
ag44
ag78
ag10
ag11
ag11
ag133
ag116
ag27
ag10
ag28
ag61
ag245
ag10
ag155
ag15
ag2
aVunravel
p1549
ag32
ag47
ag309
ag11
ag305
ag12
ag11
ag411
ag10
aVexceed
p1550
ag114
ag10
ag20
ag447
ag23
ag10
aVhave had
p1551
ag264
ag41
ag40
ag436
ag294
ag23
ag15
ag17
ag20
ag107
ag23
ag12
ag13
ag1342
ag46
ag617
ag55
aS'use'
p1552
ag46
ag42
ag133
ag148
ag279
ag106
ag188
ag114
ag10
ag10
ag71
ag10
ag12
ag11
ag148
ag183
ag10
ag30
ag10
ag87
ag197
ag28
ag10
ag197
ag233
ag108
ag10
ag20
ag10
ag15
ag82
ag1193
ag20
ag91
ag13
ag10
ag137
aS'organise'
p1553
ag10
ag61
ag10
ag2
ag10
ag2
ag76
ag73
ag13
ag302
ag114
ag54
ag10
ag204
ag67
ag244
ag19
aS'not.'
p1554
ag11
ag97
ag123
ag190
ag704
ag8
ag115
ag1020
ag81
ag76
aVcram
p1555
ag82
aVendure
p1556
ag10
ag116
ag10
ag87
ag13
ag11
ag4
ag61
ag76
ag12
ag24
ag204
ag27
ag10
ag264
ag264
ag294
ag79
ag17
ag192
ag23
ag180
ag10
ag61
ag12
ag12
aVuse
p1557
ag61
ag188
ag219
ag10
ag2
ag15
ag49
ag3
ag8
ag3
ag508
ag13
ag197
ag61
ag15
ag9
ag15
ag41
ag40
ag425
ag11
aS'use'
p1558
ag76
ag147
ag2
ag425
ag108
ag10
ag19
ag188
ag15
ag186
ag40
ag41
ag83
ag27
ag7
ag10
ag4
ag28
ag61
aVre-act
p1559
ag61
ag10
ag282
ag10
ag76
ag54
ag7
ag73
ag83
aS'organise'
p1560
ag13
ag87
aS"she'"
p1561
ag40
ag322
ag322
ag17
ag1025
ag1027
ag578
ag235
ag83
ag53
ag197
ag23
ag163
ag88
ag194
ag197
ag61
aS'returned.'
p1562
ag148
ag11
ag10
ag105
ag559
ag60
aVboost
p1563
ag30
ag10
ag99
ag264
aVgrant
p1564
ag1564
ag246
ag28
ag116
ag20
ag20
ag156
aS'born.'
p1565
ag123
ag44
ag197
aVenroll
p1566
ag10
ag59
ag11
ag436
ag221
ag20
ag19
ag20
ag76
ag42
ag41
ag3
ag27
ag12
ag4
ag20
ag111
ag15
ag116
ag54
ag187
ag135
ag6
ag133
ag61
ag279
ag12
ag10
ag58
ag10
ag2
ag54
ag24
ag61
ag83
ag87
ag203
ag110
ag311
ag367
ag23
ag10
ag3
ag4
ag40
ag41
ag31
ag197
ag23
aVthink of
p1567
ag133
ag40
ag41
aVbump
p1568
ag20
ag70
ag10
ag33
ag15
ag20
ag119
ag10
ag424
ag6
ag70
ag123
ag67
ag37
ag456
ag144
ag11
ag91
ag11
ag265
ag123
ag8
ag26
ag134
ag112
ag134
ag188
ag41
ag10
ag42
ag78
ag11
aS'(like'
p1569
ag197
ag194
ag262
ag172
ag115
ag8
ag322
ag10
ag70
ag23
ag71
ag11
ag83
aS'painted.'
p1570
ag10
aS'take?'
p1571
ag61
ag42
ag76
ag12
ag10
ag116
ag10
aS'use'
p1572
ag12
ag148
ag71
ag82
ag44
ag160
ag82
ag11
ag23
ag23
ag47
ag425
ag15
ag28
aS'"even'
p1573
ag101
ag134
ag19
ag136
aS'are,'
p1574
ag61
ag87
ag70
ag31
ag10
ag15
ag33
ag10
ag983
ag40
ag94
ag134
ag247
ag897
ag120
ag15
ag63
ag13
ag11
ag115
ag83
ag10
ag28
ag10
ag25
ag182
ag52
ag66
ag15
ag76
ag10
ag40
ag108
ag25
ag144
ag51
ag24
ag59
ag40
ag100
ag13
ag105
ag10
ag115
ag2
ag19
ag265
ag161
aS'paid'
p1575
aS'said,'
p1576
ag194
aS'escap'
p1577
ag2
ag64
ag314
ag10
ag175
ag27
ag15
ag1451
ag40
ag23
ag15
ag54
ag11
ag10
ag11
ag11
ag165
ag133
ag11
ag10
ag2
ag10
ag115
ag10
ag21
ag188
ag71
ag27
ag10
ag87
ag10
ag114
ag11
ag123
ag100
ag4
ag101
ag543
ag109
ag78
ag6
ag28
ag11
ag10
ag17
ag10
ag99
ag10
ag10
ag271
ag204
ag28
ag15
ag736
ag76
ag122
aS'love.'
p1578
ag322
ag283
ag217
ag108
ag76
ag144
ag10
ag8
ag58
ag10
ag212
ag10
ag188
ag40
ag41
ag13
ag4
ag133
ag94
ag116
ag145
ag10
ag110
ag371
ag10
ag11
ag119
ag11
ag71
ag2
ag457
ag40
ag47
ag71
ag94
ag136
ag1393
ag9
ag123
ag10
ag10
ag10
ag15
ag46
ag40
ag4
ag105
ag70
ag10
ag40
ag47
ag10
ag72
ag10
ag41
ag31
ag391
ag82
ag17
ag40
ag59
ag135
ag99
ag4
ag111
ag535
ag13
ag73
ag1499
ag10
ag69
ag15
ag15
ag15
ag10
ag67
ag10
ag335
ag10
ag10
ag49
aS'informed.'
p1579
ag13
ag10
ag17
ag11
ag10
ag2
ag338
ag10
ag505
ag10
ag217
ag24
ag34
aS'organise'
p1580
ag6
ag192
ag40
ag13
ag15
ag27
ag10
ag574
ag61
ag112
ag110
ag76
ag194
ag10
ag95
ag105
ag10
ag70
ag31
ag33
ag13
ag15
ag10
ag70
ag40
ag41
ag132
ag123
ag186
ag27
ag10
ag119
ag10
aS'buy.'
p1581
ag4
ag116
ag10
ag3
ag4
ag27
ag10
ag95
ag13
ag20
ag49
ag64
aVthread
p1582
ag10
ag95
ag17
ag15
ag17
ag10
ag118
ag27
ag55
ag12
ag21
ag11
ag105
ag1495
ag40
ag10
ag112
ag505
ag80
ag186
ag8
ag115
ag10
ag87
ag13
ag76
ag10
ag12
ag4
aS'realise'
p1583
ag40
ag15
ag74
ag10
ag40
ag82
ag271
ag10
ag447
ag23
ag322
ag116
ag27
ag10
ag15
ag71
ag20
ag10
ag415
ag82
ag40
ag156
ag11
ag377
ag4
ag42
ag25
ag24
ag100
ag10
aVcool
p1584
ag118
ag73
ag122
ag10
ag70
ag15
ag36
ag217
ag27
ag10
ag660
ag91
ag14
ag15
ag23
ag40
ag41
ag27
ag877
ag976
aS'get.'
p1585
ag2
ag148
ag28
ag101
ag30
ag151
ag25
ag134
ag4
ag10
ag82
ag19
ag12
ag4
ag11
ag10
ag590
ag10
ag21
ag87
ag508
ag54
ag61
ag119
ag73
ag1034
ag118
ag10
ag10
ag752
ag15
ag12
ag661
ag59
ag133
ag4
ag101
ag10
ag84
ag87
ag187
ag4
ag23
ag11
aVbrowse
p1586
ag12
ag71
ag17
ag200
ag19
ag271
ag36
ag82
ag374
ag112
ag70
ag31
ag83
ag163
ag15
ag61
ag15
ag400
ag10
ag116
ag82
ag9
ag101
ag100
ag24
ag205
ag28
ag1078
ag94
ag66
ag4
ag11
ag105
ag87
ag305
ag262
ag61
ag61
ag484
ag186
ag8
ag7
ag71
ag11
ag10
ag61
ag15
ag23
ag15
ag61
ag24
ag230
ag585
ag1027
ag133
ag40
ag27
ag192
ag23
ag28
ag24
ag71
aVlisten to
p1587
ag15
ag27
ag73
ag12
ag377
ag87
ag119
ag10
aS'use'
p1588
ag148
ag115
ag8
ag186
ag23
ag61
ag42
ag34
ag73
ag82
ag6
ag10
ag233
ag73
ag27
ag10
ag2
ag116
ag110
ag61
ag35
ag99
ag73
ag101
ag134
ag61
ag146
ag133
ag377
ag161
ag10
ag15
ag106
ag10
ag49
ag20
ag316
ag72
ag41
ag10
ag10
ag11
ag13
ag49
ag195
ag61
ag13
aS'concern,'
p1589
ag42
ag4
ag319
ag116
ag17
ag116
ag202
ag82
ag82
ag15
ag33
aS'like,'
p1590
ag9
ag17
ag414
ag192
aS'talk.'
p1591
ag859
ag170
ag64
ag2
aS'organise'
p1592
ag133
ag19
ag73
ag76
ag91
ag71
ag10
ag61
ag11
ag24
ag133
ag460
ag71
ag28
ag46
ag160
ag23
ag58
ag302
ag19
ag15
ag12
aS'drink.'
p1593
ag28
ag4
ag28
ag24
ag24
ag17
ag11
ag133
ag70
ag82
ag36
ag10
ag316
ag27
ag123
ag11
aS'need.'
p1594
ag15
ag116
ag2
ag41
ag40
ag10
ag43
ag25
ag95
ag133
ag4
ag230
ag40
ag148
ag115
ag8
ag115
ag27
ag277
ag116
ag82
ag11
ag33
ag4
ag10
ag27
ag192
ag12
ag11
ag19
ag24
ag119
ag359
ag44
ag4
ag10
ag116
ag41
ag40
ag115
ag23
ag144
ag10
ag58
ag76
ag54
ag115
ag4
ag3
ag94
ag15
ag54
ag28
ag195
ag23
ag119
ag10
ag19
ag4
aS'feel?'
p1595
ag204
ag27
ag87
ag24
ag10
ag4
ag220
ag100
ag24
ag400
ag1514
ag11
ag374
ag20
ag116
ag11
ag206
ag20
ag4
ag134
ag57
ag37
ag15
ag36
ag9
ag15
ag376
ag59
ag59
ag37
ag739
ag99
ag10
ag116
ag25
ag54
ag10
ag10
ag19
ag13
ag10
ag19
ag15
ag25
ag10
ag24
ag101
ag10
ag10
ag61
ag105
ag11
ag309
ag61
ag45
ag31
ag332
ag87
ag310
ag195
ag15
ag118
ag40
ag74
ag528
ag10
ag207
ag20
ag302
ag164
ag19
ag10
ag134
ag10
ag161
ag49
ag400
ag11
ag13
ag61
ag12
ag186
ag734
ag122
ag4
ag77
ag87
ag53
ag45
ag332
ag148
ag30
ag31
ag120
ag84
ag13
ag6
ag4
ag115
ag8
ag10
ag937
ag203
ag148
ag134
ag15
ag324
ag19
ag40
ag2
ag194
ag2
ag46
ag83
ag28
ag10
ag96
ag72
ag10
ag47
aS'use'
p1596
ag30
ag23
ag2
ag146
ag12
ag4
ag163
ag26
ag10
ag274
ag44
ag87
aS"don't?"
p1597
ag302
ag11
ag10
ag78
ag21
ag15
ag13
ag147
ag23
ag23
ag10
ag20
ag10
ag2
ag87
ag11
ag54
ag64
ag436
ag484
ag373
ag256
aS'do.'
p1598
ag10
ag11
ag10
ag322
ag15
ag484
ag82
ag314
ag10
ag20
ag49
ag4
ag29
ag10
ag10
ag27
ag10
ag10
ag134
ag15
ag96
ag164
ag4
ag19
ag317
ag196
ag4
ag172
ag172
ag95
ag336
ag61
ag23
ag116
ag80
ag17
ag41
ag10
ag19
ag59
ag23
ag95
ag133
ag19
aS'concern,'
p1599
ag43
ag10
ag15
ag23
ag19
ag278
ag417
aVbe done
p1600
ag73
ag2
ag67
ag57
ag23
ag425
ag21
ag19
ag10
ag277
ag11
ag10
ag61
ag528
ag411
ag41
ag40
ag300
ag48
ag197
ag457
ag393
ag545
ag32
ag46
ag73
ag99
ag24
ag42
ag420
ag151
aS'organise'
p1601
ag133
ag4
ag26
ag3
ag4
ag61
ag10
ag4
ag23
ag36
ag15
ag99
ag10
ag23
ag54
ag11
ag27
ag97
ag63
ag47
ag10
aS'free.'
p1602
ag8
ag3
ag274
ag49
ag87
ag322
ag19
ag10
ag76
ag47
ag875
ag105
ag41
ag40
ag10
ag25
ag37
ag20
ag20
ag151
ag27
ag27
ag172
ag76
ag19
aVthin
p1603
ag59
ag233
ag135
ag134
ag76
ag4
ag3
ag10
ag120
ag42
ag87
ag118
ag23
ag4
ag76
ag23
ag4
ag12
aS'take.'
p1604
ag134
ag40
ag3
ag4
ag15
ag27
ag46
ag83
ag13
ag376
ag63
ag81
ag47
ag33
ag61
ag116
ag43
ag1071
ag23
ag257
ag10
ag10
ag84
ag317
ag23
ag41
ag40
ag10
ag33
ag257
ag10
ag88
ag160
ag27
ag120
ag17
ag120
ag32
ag46
aS'relax.'
p1605
ag112
ag27
ag163
ag95
ag10
ag271
ag15
ag76
ag12
ag46
ag24
ag28
ag27
ag100
ag24
ag10
ag425
ag46
ag69
ag146
ag42
ag13
ag99
ag19
ag11
ag8
ag4
ag12
ag146
ag82
ag271
ag164
ag40
ag10
ag4
ag186
ag425
ag115
ag3
ag4
ag10
ag27
ag275
ag163
ag27
ag91
ag27
ag11
ag11
ag11
ag54
ag61
ag64
ag15
aS'organise'
p1606
ag134
ag99
ag226
ag46
ag11
ag151
ag61
ag22
ag23
ag203
ag170
ag9
aS'organise'
p1607
aS'realise'
p1608
ag10
ag331
ag10
ag2
ag46
ag979
ag118
aS'organise'
p1609
ag12
ag76
ag4
ag20
ag36
aS'repaired.'
p1610
ag87
ag70
ag115
ag20
ag484
ag182
ag4
ag133
ag19
ag10
ag71
ag55
ag10
ag82
ag61
ag46
ag160
ag15
ag151
ag8
ag2
ag84
ag10
ag46
ag324
ag10
ag101
ag377
ag20
ag9
ag10
ag46
ag425
ag4
ag116
ag15
ag47
ag76
ag17
ag1256
ag73
ag99
ag15
ag27
aS'focuse'
p1611
ag74
ag238
ag96
ag119
ag10
ag120
ag15
ag91
ag322
ag37
ag1034
ag11
ag11
ag10
ag147
ag40
ag17
ag116
ag134
ag186
ag25
ag26
ag27
ag40
ag17
ag15
ag15
ag13
ag19
ag119
ag163
ag95
ag2
ag233
ag15
ag11
ag12
ag2
ag41
ag10
ag21
ag73
ag73
ag135
ag230
ag113
ag10
ag10
ag361
ag265
ag115
ag11
ag13
ag11
ag118
aS'good.'
p1612
ag40
ag510
ag15
ag70
ag4
ag188
ag15
ag15
ag10
ag156
ag12
ag282
ag10
ag134
ag87
ag15
ag163
ag46
ag87
ag24
ag23
ag19
ag164
ag4
ag133
ag41
ag40
ag24
ag108
ag28
ag11
ag4
ag134
ag10
ag134
ag10
ag83
ag101
ag172
ag380
ag47
ag133
ag24
ag15
ag15
ag15
ag148
ag118
ag17
ag123
ag10
ag160
aS'then.'
p1613
ag61
ag87
ag6
ag10
ag188
ag347
ag14
ag170
ag41
ag61
ag163
ag230
ag25
ag40
ag41
ag188
ag6
ag17
ag27
ag61
ag59
ag27
ag11
ag188
ag11
ag10
ag204
ag11
ag20
ag1273
ag40
ag10
ag81
ag10
ag11
ag229
ag73
ag41
ag172
ag69
ag983
ag172
ag112
ag329
ag10
ag60
ag10
ag120
ag65
ag10
ag2
ag119
ag238
ag100
ag4
ag19
ag225
ag160
aVmake contacts with
p1614
ag6
ag71
aS'said,'
p1615
ag27
ag739
ag19
ag61
ag23
ag4
ag10
aS'won.'
p1616
ag4
ag76
ag282
ag374
ag61
ag163
ag23
ag464
ag194
ag10
ag136
ag15
aS'use'
p1617
ag36
ag35
ag2
ag12
ag25
ag10
ag33
ag955
ag58
ag4
ag144
ag12
ag10
ag19
ag71
ag10
ag13
ag40
ag4
ag123
ag10
ag15
ag11
ag273
ag133
ag72
ag11
aVto clear up
p1618
ag49
ag238
ag238
ag404
ag46
ag10
aVequip
p1619
ag72
ag10
ag41
ag61
ag40
ag41
aS'use'
p1620
ag15
ag15
ag17
ag279
ag94
ag161
ag10
aVlit
p1621
ag8
ag115
ag148
ag105
ag15
ag17
ag31
ag11
ag2
ag158
ag317
ag67
ag118
ag4
ag874
ag12
ag10
aS'organise'
p1622
ag41
ag40
ag473
ag4
aS'prepared.'
p1623
ag10
ag12
ag11
ag23
ag27
ag314
ag2
ag17
ag163
ag40
ag20
ag245
ag66
ag322
ag10
ag123
ag302
ag76
ag72
ag80
ag160
ag316
ag61
ag116
ag4
ag74
ag119
ag74
ag338
ag11
ag12
ag15
ag123
ag11
ag28
ag8
ag27
ag73
ag4
ag44
ag27
ag163
ag170
ag4
ag23
ag2
ag4
ag23
ag4
ag11
ag10
ag486
ag12
ag71
ag15
ag28
ag27
ag10
ag105
ag2
ag15
ag36
ag24
ag15
ag100
ag34
ag10
ag184
ag10
ag83
ag87
ag24
ag116
ag10
ag44
ag91
ag10
ag134
ag4
ag15
ag115
ag922
ag99
ag11
ag12
ag11
ag17
ag212
ag15
ag11
ag13
ag15
ag139
ag61
ag76
ag566
ag947
ag6
ag12
ag28
ag23
ag188
ag49
ag24
ag63
ag27
ag10
ag71
aVcrawl
p1624
ag8
ag96
ag10
ag106
ag15
ag106
ag282
ag64
ag54
ag11
ag111
ag78
ag4
ag489
ag514
ag57
ag219
ag71
ag91
ag292
ag37
ag10
ag42
ag204
ag24
ag34
ag220
ag4
ag26
ag148
ag180
ag28
ag15
ag988
ag10
ag9
ag19
ag4
ag43
ag115
ag13
ag11
ag47
ag15
ag77
ag336
ag197
ag101
ag197
ag483
ag6
ag99
ag4
ag212
ag119
ag76
ag43
ag12
ag32
ag15
ag13
ag76
ag219
ag436
ag15
ag187
ag275
ag87
ag12
ag11
ag10
ag13
ag116
ag83
ag10
ag28
ag10
ag43
ag15
ag76
ag20
ag10
ag15
ag114
ag10
aS'failed.'
p1625
ag145
ag133
ag10
ag59
ag12
ag150
ag46
ag148
ag28
ag133
ag54
ag41
ag30
ag937
ag178
ag294
ag10
ag10
ag335
ag91
ag188
ag10
ag57
ag72
ag87
ag24
ag528
ag278
ag47
ag34
ag188
ag72
ag15
ag99
ag222
ag41
ag177
ag133
ag23
ag674
ag11
ag815
ag338
ag901
ag49
ag10
ag12
ag25
ag583
ag27
ag10
ag55
ag10
ag314
ag20
ag275
aS'bring.'
p1626
ag212
ag4
ag37
ag24
ag10
ag597
ag45
ag11
ag19
ag23
ag27
ag48
ag12
ag96
ag28
ag6
ag2
ag23
ag113
ag61
ag27
ag11
ag367
ag4
aVremark
p1627
ag94
ag11
ag10
ag87
ag11
ag10
ag168
ag11
ag168
ag11
ag46
ag10
ag31
ag95
ag4
ag138
ag322
ag3
ag20
ag10
ag2
ag40
ag23
ag20
ag197
ag10
ag164
ag133
ag4
ag28
ag3
ag4
ag2
ag19
ag76
ag24
ag87
ag151
ag11
ag404
ag60
ag10
ag220
ag40
ag23
ag11
ag76
ag42
aS'there.'
p1628
ag73
ag96
ag15
ag54
ag133
ag160
ag52
ag119
ag119
ag19
ag61
ag4
ag3
ag265
ag25
ag41
ag46
ag25
ag10
ag83
ag208
ag99
ag8
ag505
aS'sleep,'
p1629
ag73
ag4
aVrise
p1630
ag148
ag7
ag133
ag10
ag96
ag10
ag162
ag10
ag82
ag11
ag4
ag17
ag425
ag10
ag12
ag10
ag10
ag74
ag205
ag40
ag52
ag11
ag2
ag204
ag151
ag11
ag53
ag27
ag10
ag483
ag10
ag148
ag116
ag120
ag359
aS'choose,'
p1631
ag468
aS'advertise'
p1632
ag20
ag47
ag218
ag9
ag20
ag37
ag49
ag36
ag17
ag23
ag83
aVavert
p1633
ag14
ag41
ag11
ag27
ag11
ag4
ag204
ag11
ag163
ag1090
ag119
ag4
ag123
ag15
ag10
ag133
ag47
ag15
ag163
ag10
ag11
ag8
ag115
ag37
ag10
aS'realise'
p1634
ag40
aS'available'
p1635
ag197
aS"'listen'"
p1636
ag10
ag10
ag25
ag504
ag2
ag2
ag134
ag82
ag235
ag317
ag194
ag10
ag194
ag4
ag43
ag217
ag6
ag10
ag21
ag61
ag810
ag76
ag13
ag6
ag41
ag10
ag1630
aS'rise.'
p1637
aS'realise'
p1638
ag20
ag119
ag10
ag4
ag10
ag17
aVkeen
p1639
ag148
ag203
ag277
ag133
ag94
ag25
ag15
ag76
ag3
ag99
ag73
ag10
ag23
ag264
ag10
aS'born'
p1640
ag119
ag10
ag12
ag11
ag10
ag74
ag25
ag10
ag746
ag61
ag27
ag119
ag119
ag10
ag74
ag82
ag59
ag40
ag4
ag12
ag15
ag70
ag11
ag4
ag12
ag3
ag116
ag49
ag83
ag33
ag17
ag10
ag15
ag160
ag11
ag47
ag10
ag63
ag19
ag187
ag15
ag119
ag27
ag84
ag76
ag415
ag46
ag10
ag230
ag114
ag94
ag87
ag12
ag11
ag14
ag134
ag49
ag197
ag123
ag194
ag4
ag54
ag94
ag61
ag10
ag50
ag8
ag17
ag11
ag10
ag76
ag119
ag10
ag50
ag55
ag13
ag10
ag101
ag40
ag41
ag187
ag15
ag46
ag187
ag10
ag15
ag4
ag50
ag10
ag161
ag106
ag324
ag71
ag197
ag47
ag25
ag134
ag91
ag158
ag27
ag28
ag48
ag100
ag81
ag116
ag72
ag148
ag309
ag8
ag115
ag71
ag23
ag91
ag10
ag28
ag26
ag54
ag94
ag15
ag105
ag105
ag10
ag2
ag15
ag15
ag10
ag10
ag42
ag2
ag19
ag4
ag71
ag41
ag119
ag23
ag84
ag15
ag207
ag54
ag110
aVgetting on
p1641
ag13
ag544
ag88
ag27
ag87
ag163
ag11
ag100
ag24
ag61
ag87
ag10
ag145
ag15
ag71
ag20
ag197
ag47
ag8
ag144
ag40
ag10
ag134
ag119
ag10
aS"it'"
p1642
ag11
ag10
ag64
ag1501
aS'use'
p1643
ag870
ag23
ag192
ag10
aVovercome
p1644
ag63
ag99
ag122
ag197
ag211
ag95
ag230
ag13
ag11
ag61
ag13
ag73
ag46
ag87
ag11
ag2
ag61
ag99
ag704
ag99
ag116
ag10
ag404
ag57
ag10
aS'do.'
p1645
ag408
ag11
ag528
ag186
ag59
ag72
ag59
ag57
ag10
ag15
ag119
ag46
ag10
ag82
ag10
ag31
ag10
ag265
ag23
ag321
ag167
ag46
ag36
ag82
ag19
ag20
ag37
ag20
ag40
ag105
ag367
ag46
ag757
ag4
ag23
ag13
ag505
ag15
ag17
ag95
ag71
ag208
ag1019
ag9
ag119
ag13
ag12
ag498
ag61
ag15
ag61
ag13
ag2
ag71
ag46
ag100
ag24
ag17
ag15
ag197
ag2
ag309
ag25
ag123
ag15
ag188
ag115
ag10
ag27
ag88
ag71
ag118
ag10
ag188
ag15
ag336
ag33
ag11
ag116
ag415
aS'enjoy.'
p1646
ag27
aS'wanted,'
p1647
ag59
ag170
ag324
ag24
ag87
ag47
ag133
ag15
ag10
ag134
ag10
ag66
ag10
aS'redecorate'
p1648
ag148
ag27
ag265
ag630
ag40
ag41
ag136
ag87
ag28
ag1242
ag76
ag70
ag10
aS'use'
p1649
ag10
ag212
ag10
ag188
ag29
ag10
ag11
ag78
ag11
ag204
ag41
ag40
ag154
ag6
ag590
ag25
ag33
ag964
ag138
ag10
aS'changed.'
p1650
ag12
ag4
ag24
ag26
aS'see.'
p1651
ag9
ag15
ag27
ag10
ag133
ag41
ag11
ag182
ag10
ag1136
ag279
ag23
ag10
ag335
ag23
ag43
ag164
ag238
ag24
ag100
ag10
ag95
ag119
ag280
ag322
ag15
ag13
ag11
ag140
ag72
ag28
ag10
ag114
ag148
ag10
ag8
ag105
ag61
ag4
ag45
ag1390
ag217
ag116
ag99
ag91
ag11
ag10
ag96
ag583
ag126
ag27
ag527
ag10
ag132
ag151
ag347
ag82
ag71
ag10
ag188
ag144
ag15
ag46
ag15
ag40
ag24
ag10
ag4
ag50
ag310
ag163
ag71
ag320
ag10
ag197
ag10
ag82
ag87
ag11
ag87
ag219
ag70
ag148
ag24
ag180
ag122
ag10
ag20
ag100
ag37
ag8
ag115
aS'use'
p1652
ag72
ag10
ag465
ag59
ag917
ag10
aS'advertise'
p1653
ag61
ag73
ag11
ag11
ag10
ag6
aS'computerise'
p1654
aVextract
p1655
ag279
ag204
ag100
ag24
ag2
ag4
ag8
ag41
ag15
ag17
ag87
ag4
ag26
ag151
ag47
ag123
ag15
ag108
ag15
ag23
ag4
ag61
ag28
ag15
ag183
ag13
ag100
ag25
ag10
ag27
ag41
ag40
ag135
ag59
ag40
ag12
ag19
ag82
aVpuncture
p1656
aS'burnt.'
p1657
ag15
ag194
ag10
ag163
ag95
ag24
ag10
ag120
ag13
ag11
ag63
ag45
ag23
ag28
ag163
ag133
ag119
ag142
ag65
ag95
ag23
ag82
ag233
aS'realise'
p1658
ag739
ag15
ag10
ag197
ag137
ag11
ag10
ag4
ag44
ag94
ag71
ag61
ag10
ag163
ag175
ag10
ag11
ag12
aS'bring.'
p1659
ag15
ag116
ag13
ag57
ag105
ag47
ag142
ag36
ag58
ag2
ag27
ag190
ag112
ag82
ag74
ag15
ag20
ag15
ag61
ag10
ag61
ag111
ag15
ag17
ag28
ag4
ag28
ag175
ag305
ag10
ag10
ag91
ag10
aS'fun.'
p1660
ag10
ag21
ag10
ag158
ag23
ag450
ag61
ag10
ag69
ag19
ag19
ag233
ag15
ag1114
ag99
ag10
ag12
ag4
ag615
ag35
ag76
ag115
ag4
ag95
ag15
ag122
ag15
ag32
ag47
ag94
ag144
ag364
aS'miss.'
p1661
aS'organise'
p1662
ag10
ag4
ag11
aS'sailing.'
p1663
ag20
ag55
ag15
ag40
ag211
ag96
ag10
ag172
ag142
ag1324
ag71
ag10
ag271
ag69
ag44
ag10
ag134
ag10
aS'organise'
p1664
ag4
ag61
ag13
ag218
ag4
ag120
ag10
ag262
ag10
ag2
ag175
ag87
ag133
ag24
ag100
ag148
ag134
ag76
ag24
ag256
ag204
ag61
ag10
ag12
ag10
ag10
ag61
ag163
ag82
ag40
ag17
ag76
ag13
ag9
ag43
ag25
aVwe've got
p1665
ag118
ag99
ag279
ag179
ag4
ag136
ag4
ag17
ag243
ag10
ag151
ag17
ag73
ag40
ag99
ag10
ag122
ag95
ag40
ag28
ag116
ag245
ag111
ag15
ag136
ag14
ag63
ag2
ag43
ag23
aS'use'
p1666
ag27
ag67
ag406
ag15
ag17
ag94
ag78
ag11
ag11
ag197
ag110
ag116
ag3
ag7
ag12
ag23
aS'arrived,'
p1667
ag10
ag15
ag188
ag82
ag4
aS'join.'
p1668
ag24
ag76
ag148
ag115
ag115
ag15
ag71
ag91
ag134
ag10
ag106
ag83
ag61
ag15
ag33
ag17
ag245
ag15
ag93
ag47
ag322
ag23
ag12
ag9
ag250
ag47
ag11
ag10
ag77
ag10
ag54
ag12
ag158
ag13
ag11
ag11
ag70
ag4
ag197
ag219
ag33
ag28
ag136
ag27
ag11
ag10
ag707
ag78
aS'loved.'
p1669
ag163
ag10
ag49
ag374
ag27
ag271
ag11
ag35
ag115
ag105
ag10
ag380
ag283
ag61
ag233
ag82
ag115
ag4
ag59
ag112
ag12
ag10
ag24
ag146
ag15
ag10
ag24
ag19
ag99
ag73
ag99
ag73
ag2
aS'mean,'
p1670
ag11
ag13
ag61
ag24
ag71
ag217
ag302
ag76
ag35
aS'realise'
p1671
ag10
ag663
ag2
ag19
ag118
ag76
ag23
ag4
ag76
ag115
ag54
ag219
ag15
ag204
ag1260
ag300
ag9
ag2
ag10
ag271
ag10
ag99
ag4
aS'expected.'
p1672
ag146
ag2
ag11
ag17
ag322
ag287
ag11
aVarrest
p1673
ag300
ag72
ag41
ag10
ag10
ag147
ag197
ag19
ag376
ag10
ag69
ag41
ag133
ag40
ag72
ag113
ag17
aS'organise'
p1674
ag23
ag4
ag15
ag41
ag40
ag87
ag1059
ag163
ag184
ag163
ag46
ag158
ag10
ag41
ag40
ag61
ag83
ag96
ag40
ag41
ag41
ag12
ag27
ag105
ag15
ag26
ag10
ag2
ag47
ag15
ag115
ag1273
ag10
ag15
ag27
ag8
ag71
ag28
ag10
ag135
ag349
ag101
ag17
ag11
ag20
ag382
ag11
ag118
ag116
ag164
ag24
ag186
ag43
ag59
ag134
ag46
ag379
ag4
ag514
ag233
ag33
ag28
ag230
ag162
ag404
ag12
ag15
ag70
ag243
ag2
ag71
ag13
ag114
ag57
ag4
ag21
ag10
ag963
ag243
ag27
ag10
ag328
ag11
ag76
ag10
ag96
ag12
ag138
aS'rise.'
p1675
ag283
ag317
ag10
aVcame across with
p1676
ag9
ag322
ag61
ag11
ag11
aS'feel?'
p1677
aVinherit
p1678
ag12
ag13
ag133
ag176
ag10
ag406
ag10
ag106
ag95
ag46
ag10
ag11
ag4
ag87
ag2
ag13
ag10
ag197
ag347
ag47
ag4
ag22
ag4
ag1114
ag151
aS'painful.'
p1679
ag70
ag134
ag148
ag134
ag71
ag94
ag168
aS'use'
p1680
ag450
ag151
ag49
ag10
ag47
ag116
ag4
ag134
ag15
ag44
ag123
ag257
ag12
ag54
ag111
ag15
ag95
ag271
aS'need.'
p1681
ag61
ag107
ag52
ag3
ag4
ag10
ag380
ag11
ag272
ag27
ag119
ag4
ag11
ag61
ag10
ag76
ag144
ag61
ag197
ag27
aS'do,'
p1682
ag10
ag415
ag110
ag99
ag73
ag96
ag64
ag12
ag10
ag17
ag15
ag19
ag197
ag71
ag96
ag66
aS'"see'
p1683
ag4
ag12
ag54
aS'take?'
p1684
ag133
ag15
ag4
ag101
ag15
ag13
ag134
ag10
ag4
ag30
ag76
ag27
ag47
ag119
ag10
ag42
ag17
ag13
ag25
ag10
ag9
aVhurl
p1685
ag2
aVsimmer
p1686
ag20
ag127
ag10
ag41
ag19
ag15
ag176
ag63
ag116
ag15
ag13
ag3
ag19
ag4
ag40
ag59
ag1273
ag23
ag50
ag10
ag204
ag15
ag118
ag10
ag118
ag164
ag24
ag100
ag54
ag61
ag42
ag61
ag11
ag13
ag50
ag163
aS'sometimes.'
p1687
ag135
ag172
ag45
ag91
ag82
ag164
ag3
ag10
ag314
ag116
ag324
ag41
ag456
ag188
ag167
ag423
ag4
ag15
ag142
ag10
ag74
ag78
ag3
ag20
ag115
ag28
ag10
ag257
ag72
ag10
ag10
ag12
ag322
ag147
ag87
ag322
ag2
ag23
ag19
ag10
ag314
ag145
ag70
ag218
ag23
ag2
ag10
ag27
ag155
ag82
ag11
ag283
ag120
ag10
ag23
ag10
ag187
ag137
ag11
ag11
ag11
ag10
ag84
ag6
ag13
ag40
ag8
ag10
ag112
ag10
ag148
ag82
ag84
ag11
ag12
ag17
ag87
ag6
ag10
ag87
ag33
ag79
ag83
ag11
ag12
ag95
ag4
ag8
ag186
ag10
ag10
ag643
ag100
ag24
ag4
ag187
ag611
ag76
ag11
ag76
ag61
ag19
ag513
ag493
ag20
aS'use'
p1688
ag20
ag13
ag12
ag10
ag23
aS'realise'
p1689
aS'paid'
p1690
ag207
ag27
ag66
ag119
ag10
ag328
ag134
ag77
ag10
ag3
ag4
ag257
ag542
ag302
ag24
ag319
ag4
ag309
ag15
ag19
ag58
ag4
ag40
ag82
ag1193
ag33
ag17
ag10
ag71
ag31
ag10
ag120
ag4
ag3
ag10
ag19
ag10
ag61
ag8
ag95
ag137
ag12
aS'born'
p1691
ag12
ag31
ag3
ag10
aVawait
p1692
ag10
ag3
ag23
ag220
ag197
ag105
ag40
ag4
ag15
ag76
ag163
ag27
ag49
ag41
ag41
ag197
ag197
ag49
ag411
ag163
ag24
ag119
ag25
ag19
ag70
ag148
ag15
ag10
ag1436
ag10
ag15
ag123
ag123
ag10
ag11
ag27
ag71
ag23
ag10
ag15
ag11
ag27
ag108
ag101
aS'made.'
p1693
ag12
ag96
ag87
ag109
ag10
ag8
ag115
ag28
ag115
aVacquaint
p1694
ag95
ag27
ag4
ag134
ag112
ag197
ag17
ag13
ag153
ag302
ag27
ag4
aS'know.'
p1695
ag11
ag82
ag65
ag100
ag24
ag28
ag112
ag27
ag4
ag88
ag8
ag133
ag15
ag10
ag66
ag2
ag10
ag535
ag54
ag113
ag6
ag10
ag3
ag160
ag87
ag54
ag40
ag40
ag133
ag13
ag12
ag146
ag116
ag17
ag10
ag155
ag19
ag10
ag20
ag4
ag12
ag95
ag364
ag87
ag54
ag473
ag8
ag71
ag1345
ag41
ag10
ag511
ag27
ag64
ag331
ag338
ag116
ag96
ag10
ag19
ag10
ag44
ag27
ag122
aVadjust
p1696
ag27
aS'realise'
p1697
ag9
ag8
ag4
ag17
ag15
ag47
ag100
ag24
ag137
ag19
ag33
ag95
ag306
ag76
aS'paid'
p1698
ag133
ag24
ag739
aS'organise'
p1699
ag87
ag71
ag12
ag105
ag122
ag294
ag41
ag2
ag235
ag12
ag535
ag256
ag83
ag282
ag14
aS'cried,'
p1700
ag11
ag96
ag123
ag10
ag2
ag10
ag11
ag28
ag46
aS'use'
p1701
ag11
ag28
ag82
ag10
ag12
ag10
ag193
ag42
ag61
ag163
ag52
ag1172
ag2
ag61
ag71
ag118
ag219
ag586
ag250
ag27
ag12
ag13
ag19
ag27
ag960
ag332
ag10
ag163
ag9
ag40
ag84
ag15
ag1514
ag4
ag10
ag12
ag54
ag15
ag4
ag280
ag4
aS'know,'
p1702
ag322
ag11
ag116
ag71
ag19
ag232
ag2
ag13
aS'paid'
p1703
ag11
ag12
ag10
ag233
ag10
ag99
ag322
ag10
ag11
ag10
ag13
ag70
ag82
ag187
ag816
ag484
ag10
ag204
aVtransfer
p1704
aS'marvellous.'
p1705
ag46
aVobey
p1706
ag30
ag70
ag10
ag27
ag45
ag2
ag83
ag28
ag151
ag27
ag50
ag40
ag110
ag23
ag17
ag65
ag106
ag12
ag4
ag168
ag11
ag324
ag123
ag70
ag27
ag23
aS'use'
p1707
ag347
ag61
ag201
ag59
ag54
ag15
ag19
ag36
ag156
ag87
ag64
ag105
ag11
ag10
ag597
ag116
ag96
ag40
ag41
ag133
ag118
ag63
ag99
ag12
ag10
ag8
ag44
ag179
ag44
ag10
ag2
ag10
ag31
ag119
ag76
ag4
ag4
ag61
ag8
ag186
ag2
ag10
ag24
ag76
ag11
ag54
ag28
ag46
ag2
ag233
ag28
ag40
ag28
ag436
ag15
ag12
ag15
ag65
ag170
ag425
ag151
ag1075
ag194
ag374
ag271
ag11
ag54
ag45
ag197
ag70
ag15
ag161
aS'realise'
p1708
ag48
ag279
ag20
ag118
ag170
ag212
ag10
ag94
ag47
ag867
ag877
ag116
ag94
ag27
ag20
ag83
ag8
ag105
ag310
ag10
ag305
ag415
ag182
ag133
ag72
ag1059
ag15
ag17
ag10
ag24
ag87
ag87
ag13
aVcame up
p1709
ag940
ag10
ag119
ag15
ag46
ag41
ag61
ag11
ag55
ag151
ag28
ag41
ag1193
ag134
ag40
ag54
aVreorganize
p1710
ag54
ag119
ag10
ag7
ag40
ag11
ag8
ag10
ag10
ag484
ag78
ag212
ag163
aS'solve.'
p1711
ag123
ag212
ag3
ag4
ag123
ag15
ag24
ag473
ag71
ag4
ag76
ag170
ag123
ag10
ag12
aVproviding for
p1712
ag99
ag202
ag187
ag40
ag41
ag233
ag112
ag10
ag49
ag11
ag425
ag13
ag116
ag150
ag12
ag11
ag24
ag43
ag11
ag12
ag27
ag172
ag88
ag17
ag137
ag15
ag736
ag2
ag10
ag95
ag70
ag40
ag870
ag61
ag12
ag61
ag61
ag10
ag10
ag10
ag72
ag10
ag19
ag250
ag24
ag10
ag10
ag15
ag10
ag61
ag41
ag40
ag265
ag10
ag15
ag186
ag54
ag10
ag61
ag322
ag17
ag134
ag2
ag314
ag106
ag447
ag615
ag63
ag87
ag415
ag72
ag4
ag11
ag23
aVdwell
p1713
ag11
ag87
ag101
ag100
ag24
ag61
ag24
ag10
ag83
aS'happened,'
p1714
ag10
ag113
ag320
ag182
ag40
ag17
ag148
ag136
ag10
ag275
ag84
ag10
ag8
ag10
ag21
ag88
ag4
ag106
ag106
ag188
ag15
ag25
ag87
ag9
ag40
ag123
ag4
ag70
ag43
ag136
ag17
ag10
ag11
ag25
ag4
ag10
ag10
ag12
ag10
ag11
ag12
ag11
ag10
ag13
ag3
ag82
aS'there.'
p1715
ag10
ag133
ag74
ag3
ag10
ag94
ag28
ag105
ag109
ag8
ag13
ag133
ag13
ag19
ag10
ag72
ag177
ag23
ag15
ag163
ag20
ag20
ag96
ag9
ag15
aS'do.'
p1716
ag24
ag15
ag146
ag27
ag877
ag23
ag63
ag15
ag186
ag217
ag65
ag10
ag33
ag40
ag97
ag4
ag15
ag99
ag73
ag207
ag15
ag115
ag134
ag179
ag54
ag105
ag17
ag10
ag24
ag15
ag115
ag61
ag28
ag71
ag10
ag23
ag2
ag20
ag40
ag82
aS'use'
p1717
ag192
ag83
ag614
ag617
ag54
ag40
ag27
aS'use'
p1718
ag54
ag54
ag311
ag73
ag3
ag28
ag4
aS'travel,'
p1719
ag4
ag186
ag43
ag217
ag579
ag411
ag27
ag901
ag12
ag11
ag12
ag366
ag112
ag33
ag15
ag271
ag54
ag542
ag11
ag10
ag19
ag112
ag61
ag42
ag10
ag55
ag40
ag17
ag4
ag10
ag2
ag17
ag204
ag27
ag10
ag10
ag170
ag25
ag10
ag144
ag84
ag230
ag27
ag84
ag87
ag332
ag156
ag134
ag383
ag383
ag10
ag163
ag41
ag13
ag41
ag40
ag61
ag61
ag331
ag10
ag115
aS'say,'
p1720
ag3
ag470
ag105
ag13
ag194
ag19
ag88
ag13
ag10
aS'expensive.'
p1721
ag59
ag163
ag41
ag40
aS'meet.'
p1722
ag6
ag20
ag411
ag84
ag41
ag87
ag217
ag15
ag15
ag61
ag28
ag12
ag243
ag73
ag1108
ag11
ag76
ag10
ag17
ag194
ag140
ag163
ag53
aVsplit
p1723
ag33
ag21
ag10
ag197
ag106
ag82
ag10
ag41
ag148
aVaddict
p1724
ag136
ag10
ag119
ag8
ag84
ag115
ag26
ag24
ag133
ag15
ag10
ag7
ag10
ag8
ag23
ag1184
ag133
ag65
ag61
ag10
aS'take,'
p1725
ag10
ag20
ag209
ag64
ag9
ag49
ag218
ag96
ag10
ag566
ag47
aS'afford.'
p1726
ag10
ag76
ag76
ag61
ag11
ag11
ag146
aVpour
p1727
ag115
ag10
ag294
ag13
ag10
ag106
ag11
ag54
ag99
ag73
ag1394
ag46
ag230
ag116
ag50
ag105
ag14
ag1059
ag17
ag4
ag40
ag41
ag11
ag11
ag148
ag457
ag27
ag116
ag99
ag20
ag120
ag134
ag82
ag15
ag202
ag10
ag20
ag128
ag2
ag19
ag19
ag4
ag10
ag20
ag49
ag10
ag10
ag3
ag163
ag182
ag11
ag82
ag415
ag10
ag537
ag37
ag15
ag31
ag20
ag10
ag47
ag36
ag83
ag15
ag27
ag309
ag11
ag415
ag27
ag15
ag1163
ag153
ag231
ag76
ag33
ag10
ag28
ag10
ag71
ag159
ag10
ag95
ag27
ag4
ag15
ag811
ag154
ag112
ag163
ag156
ag11
ag10
ag10
ag17
ag163
ag259
ag83
ag151
ag91
ag119
ag6
aS'got.'
p1728
ag10
ag364
ag136
ag88
ag27
ag206
ag10
ag10
ag28
ag3
ag113
ag4
ag133
ag91
ag42
ag49
ag10
ag77
ag61
ag15
ag17
ag4
ag133
aS'done.'
p1729
ag10
ag61
ag1345
ag10
ag13
ag10
aS'accepted,'
p1730
ag61
ag188
ag75
ag58
ag188
ag13
ag10
ag15
ag49
ag101
ag19
ag10
ag10
ag188
ag24
ag57
ag4
ag3
ag33
ag116
ag194
ag219
ag884
ag23
ag9
ag11
ag12
ag15
ag28
ag87
ag2
ag31
ag105
ag164
ag89
ag10
ag127
ag292
ag42
ag11
ag87
ag10
ag163
ag10
ag11
ag170
ag27
ag10
ag61
aVwhistle
p1731
ag177
ag310
ag374
ag211
ag884
ag41
ag197
ag61
ag10
ag61
ag261
ag87
ag19
ag133
ag72
ag10
ag373
ag116
ag15
ag33
ag101
ag287
ag322
ag10
aVget on
p1732
ag136
ag50
ag47
ag33
ag10
ag72
ag4
ag34
ag49
ag104
ag11
ag20
ag10
ag1273
ag940
aS'organise'
p1733
ag41
ag10
ag70
ag82
ag15
ag83
ag135
ag25
aS'use'
p1734
ag123
ag170
ag10
ag33
ag29
ag8
ag115
ag40
ag28
ag35
ag10
ag11
ag87
aS'filmed.'
p1735
ag41
ag40
ag47
ag119
ag67
ag94
ag31
ag10
ag332
ag116
ag71
ag136
ag33
ag10
ag17
ag15
ag151
ag19
ag87
ag101
ag10
ag46
ag10
ag61
ag134
ag10
ag23
ag112
ag99
ag10
ag145
ag310
ag10
ag40
ag23
ag2
ag23
ag2
ag197
ag2
ag94
aVuse
p1736
ag46
ag30
ag1394
ag262
ag2
ag71
ag46
ag115
ag123
ag12
ag27
ag27
ag590
ag63
aS'use'
p1737
ag58
ag82
ag2
ag84
ag133
ag24
ag114
ag10
ag20
ag19
ag10
ag15
ag17
ag61
ag10
aS'advertise'
p1738
ag310
ag661
ag49
ag12
ag4
ag10
ag95
ag535
ag22
ag484
ag48
ag25
ag135
ag7
ag133
ag82
ag10
ag23
ag47
ag10
ag10
ag23
ag11
ag114
ag11
ag10
ag187
ag11
ag4
ag2
ag82
ag2
ag83
ag101
aS'stolen.'
p1739
ag135
ag204
ag12
ag10
ag40
ag20
ag10
ag10
ag133
ag12
ag112
ag72
ag15
ag40
ag2
ag134
ag61
ag10
ag31
ag579
ag116
ag15
aS'find,'
p1740
ag10
ag170
ag10
ag425
ag61
ag411
ag54
ag11
ag10
ag329
ag4
ag309
ag25
ag11
ag33
ag10
ag119
aVliberate
p1741
ag10
ag10
ag87
ag105
ag10
ag100
ag40
ag41
ag4
ag2
ag119
ag71
ag15
ag10
ag119
ag10
ag76
ag80
ag41
ag10
ag87
ag774
ag235
ag28
aVput on
p1742
ag10
ag197
ag3
ag4
aS'nicer.'
p1743
ag3
ag4
ag99
ag136
ag15
ag4
ag12
ag54
aS'take,'
p1744
ag450
ag151
ag20
ag123
ag40
ag4
ag15
ag10
ag158
ag4
ag17
ag314
ag40
ag99
ag72
ag91
ag10
ag164
ag317
ag24
aS'lost.'
p1745
ag11
ag321
ag292
ag542
ag17
ag19
ag10
ag272
ag72
ag25
ag106
ag61
ag104
ag10
ag17
ag27
ag10
ag10
ag94
ag615
ag177
ag35
ag61
ag15
ag12
ag105
ag275
ag27
ag15
ag181
ag27
ag1121
ag10
ag194
ag4
ag15
ag27
ag11
ag95
ag192
ag95
ag33
ag23
ag33
ag31
ag219
ag10
ag19
ag70
ag10
ag31
ag11
ag19
ag161
ag84
ag859
ag27
ag138
ag10
ag72
ag10
ag76
ag41
ag148
ag15
ag208
aS'paid'
p1746
ag8
ag115
ag115
ag105
ag10
ag24
ag61
ag15
ag12
ag27
ag50
ag83
ag76
ag70
ag112
ag76
ag15
ag23
ag25
ag27
a.